
ctarget:     file format elf64-x86-64


Disassembly of section .init:

0000000000400c48 <_init>:
  400c48:	48 83 ec 08          	sub    $0x8,%rsp
  400c4c:	48 8b 05 a5 33 20 00 	mov    0x2033a5(%rip),%rax        # 603ff8 <__gmon_start__>
  400c53:	48 85 c0             	test   %rax,%rax
  400c56:	74 02                	je     400c5a <_init+0x12>
  400c58:	ff d0                	callq  *%rax
  400c5a:	48 83 c4 08          	add    $0x8,%rsp
  400c5e:	c3                   	retq   

Disassembly of section .plt:

0000000000400c60 <.plt>:
  400c60:	ff 35 a2 33 20 00    	pushq  0x2033a2(%rip)        # 604008 <_GLOBAL_OFFSET_TABLE_+0x8>
  400c66:	ff 25 a4 33 20 00    	jmpq   *0x2033a4(%rip)        # 604010 <_GLOBAL_OFFSET_TABLE_+0x10>
  400c6c:	0f 1f 40 00          	nopl   0x0(%rax)

0000000000400c70 <strcasecmp@plt>:
  400c70:	ff 25 a2 33 20 00    	jmpq   *0x2033a2(%rip)        # 604018 <strcasecmp@GLIBC_2.2.5>
  400c76:	68 00 00 00 00       	pushq  $0x0
  400c7b:	e9 e0 ff ff ff       	jmpq   400c60 <.plt>

0000000000400c80 <__errno_location@plt>:
  400c80:	ff 25 9a 33 20 00    	jmpq   *0x20339a(%rip)        # 604020 <__errno_location@GLIBC_2.2.5>
  400c86:	68 01 00 00 00       	pushq  $0x1
  400c8b:	e9 d0 ff ff ff       	jmpq   400c60 <.plt>

0000000000400c90 <srandom@plt>:
  400c90:	ff 25 92 33 20 00    	jmpq   *0x203392(%rip)        # 604028 <srandom@GLIBC_2.2.5>
  400c96:	68 02 00 00 00       	pushq  $0x2
  400c9b:	e9 c0 ff ff ff       	jmpq   400c60 <.plt>

0000000000400ca0 <strncmp@plt>:
  400ca0:	ff 25 8a 33 20 00    	jmpq   *0x20338a(%rip)        # 604030 <strncmp@GLIBC_2.2.5>
  400ca6:	68 03 00 00 00       	pushq  $0x3
  400cab:	e9 b0 ff ff ff       	jmpq   400c60 <.plt>

0000000000400cb0 <strcpy@plt>:
  400cb0:	ff 25 82 33 20 00    	jmpq   *0x203382(%rip)        # 604038 <strcpy@GLIBC_2.2.5>
  400cb6:	68 04 00 00 00       	pushq  $0x4
  400cbb:	e9 a0 ff ff ff       	jmpq   400c60 <.plt>

0000000000400cc0 <puts@plt>:
  400cc0:	ff 25 7a 33 20 00    	jmpq   *0x20337a(%rip)        # 604040 <puts@GLIBC_2.2.5>
  400cc6:	68 05 00 00 00       	pushq  $0x5
  400ccb:	e9 90 ff ff ff       	jmpq   400c60 <.plt>

0000000000400cd0 <write@plt>:
  400cd0:	ff 25 72 33 20 00    	jmpq   *0x203372(%rip)        # 604048 <write@GLIBC_2.2.5>
  400cd6:	68 06 00 00 00       	pushq  $0x6
  400cdb:	e9 80 ff ff ff       	jmpq   400c60 <.plt>

0000000000400ce0 <__stack_chk_fail@plt>:
  400ce0:	ff 25 6a 33 20 00    	jmpq   *0x20336a(%rip)        # 604050 <__stack_chk_fail@GLIBC_2.4>
  400ce6:	68 07 00 00 00       	pushq  $0x7
  400ceb:	e9 70 ff ff ff       	jmpq   400c60 <.plt>

0000000000400cf0 <mmap@plt>:
  400cf0:	ff 25 62 33 20 00    	jmpq   *0x203362(%rip)        # 604058 <mmap@GLIBC_2.2.5>
  400cf6:	68 08 00 00 00       	pushq  $0x8
  400cfb:	e9 60 ff ff ff       	jmpq   400c60 <.plt>

0000000000400d00 <memset@plt>:
  400d00:	ff 25 5a 33 20 00    	jmpq   *0x20335a(%rip)        # 604060 <memset@GLIBC_2.2.5>
  400d06:	68 09 00 00 00       	pushq  $0x9
  400d0b:	e9 50 ff ff ff       	jmpq   400c60 <.plt>

0000000000400d10 <alarm@plt>:
  400d10:	ff 25 52 33 20 00    	jmpq   *0x203352(%rip)        # 604068 <alarm@GLIBC_2.2.5>
  400d16:	68 0a 00 00 00       	pushq  $0xa
  400d1b:	e9 40 ff ff ff       	jmpq   400c60 <.plt>

0000000000400d20 <close@plt>:
  400d20:	ff 25 4a 33 20 00    	jmpq   *0x20334a(%rip)        # 604070 <close@GLIBC_2.2.5>
  400d26:	68 0b 00 00 00       	pushq  $0xb
  400d2b:	e9 30 ff ff ff       	jmpq   400c60 <.plt>

0000000000400d30 <read@plt>:
  400d30:	ff 25 42 33 20 00    	jmpq   *0x203342(%rip)        # 604078 <read@GLIBC_2.2.5>
  400d36:	68 0c 00 00 00       	pushq  $0xc
  400d3b:	e9 20 ff ff ff       	jmpq   400c60 <.plt>

0000000000400d40 <signal@plt>:
  400d40:	ff 25 3a 33 20 00    	jmpq   *0x20333a(%rip)        # 604080 <signal@GLIBC_2.2.5>
  400d46:	68 0d 00 00 00       	pushq  $0xd
  400d4b:	e9 10 ff ff ff       	jmpq   400c60 <.plt>

0000000000400d50 <gethostbyname@plt>:
  400d50:	ff 25 32 33 20 00    	jmpq   *0x203332(%rip)        # 604088 <gethostbyname@GLIBC_2.2.5>
  400d56:	68 0e 00 00 00       	pushq  $0xe
  400d5b:	e9 00 ff ff ff       	jmpq   400c60 <.plt>

0000000000400d60 <__memmove_chk@plt>:
  400d60:	ff 25 2a 33 20 00    	jmpq   *0x20332a(%rip)        # 604090 <__memmove_chk@GLIBC_2.3.4>
  400d66:	68 0f 00 00 00       	pushq  $0xf
  400d6b:	e9 f0 fe ff ff       	jmpq   400c60 <.plt>

0000000000400d70 <strtol@plt>:
  400d70:	ff 25 22 33 20 00    	jmpq   *0x203322(%rip)        # 604098 <strtol@GLIBC_2.2.5>
  400d76:	68 10 00 00 00       	pushq  $0x10
  400d7b:	e9 e0 fe ff ff       	jmpq   400c60 <.plt>

0000000000400d80 <memcpy@plt>:
  400d80:	ff 25 1a 33 20 00    	jmpq   *0x20331a(%rip)        # 6040a0 <memcpy@GLIBC_2.14>
  400d86:	68 11 00 00 00       	pushq  $0x11
  400d8b:	e9 d0 fe ff ff       	jmpq   400c60 <.plt>

0000000000400d90 <time@plt>:
  400d90:	ff 25 12 33 20 00    	jmpq   *0x203312(%rip)        # 6040a8 <time@GLIBC_2.2.5>
  400d96:	68 12 00 00 00       	pushq  $0x12
  400d9b:	e9 c0 fe ff ff       	jmpq   400c60 <.plt>

0000000000400da0 <random@plt>:
  400da0:	ff 25 0a 33 20 00    	jmpq   *0x20330a(%rip)        # 6040b0 <random@GLIBC_2.2.5>
  400da6:	68 13 00 00 00       	pushq  $0x13
  400dab:	e9 b0 fe ff ff       	jmpq   400c60 <.plt>

0000000000400db0 <_IO_getc@plt>:
  400db0:	ff 25 02 33 20 00    	jmpq   *0x203302(%rip)        # 6040b8 <_IO_getc@GLIBC_2.2.5>
  400db6:	68 14 00 00 00       	pushq  $0x14
  400dbb:	e9 a0 fe ff ff       	jmpq   400c60 <.plt>

0000000000400dc0 <__isoc99_sscanf@plt>:
  400dc0:	ff 25 fa 32 20 00    	jmpq   *0x2032fa(%rip)        # 6040c0 <__isoc99_sscanf@GLIBC_2.7>
  400dc6:	68 15 00 00 00       	pushq  $0x15
  400dcb:	e9 90 fe ff ff       	jmpq   400c60 <.plt>

0000000000400dd0 <munmap@plt>:
  400dd0:	ff 25 f2 32 20 00    	jmpq   *0x2032f2(%rip)        # 6040c8 <munmap@GLIBC_2.2.5>
  400dd6:	68 16 00 00 00       	pushq  $0x16
  400ddb:	e9 80 fe ff ff       	jmpq   400c60 <.plt>

0000000000400de0 <__printf_chk@plt>:
  400de0:	ff 25 ea 32 20 00    	jmpq   *0x2032ea(%rip)        # 6040d0 <__printf_chk@GLIBC_2.3.4>
  400de6:	68 17 00 00 00       	pushq  $0x17
  400deb:	e9 70 fe ff ff       	jmpq   400c60 <.plt>

0000000000400df0 <fopen@plt>:
  400df0:	ff 25 e2 32 20 00    	jmpq   *0x2032e2(%rip)        # 6040d8 <fopen@GLIBC_2.2.5>
  400df6:	68 18 00 00 00       	pushq  $0x18
  400dfb:	e9 60 fe ff ff       	jmpq   400c60 <.plt>

0000000000400e00 <getopt@plt>:
  400e00:	ff 25 da 32 20 00    	jmpq   *0x2032da(%rip)        # 6040e0 <getopt@GLIBC_2.2.5>
  400e06:	68 19 00 00 00       	pushq  $0x19
  400e0b:	e9 50 fe ff ff       	jmpq   400c60 <.plt>

0000000000400e10 <strtoul@plt>:
  400e10:	ff 25 d2 32 20 00    	jmpq   *0x2032d2(%rip)        # 6040e8 <strtoul@GLIBC_2.2.5>
  400e16:	68 1a 00 00 00       	pushq  $0x1a
  400e1b:	e9 40 fe ff ff       	jmpq   400c60 <.plt>

0000000000400e20 <gethostname@plt>:
  400e20:	ff 25 ca 32 20 00    	jmpq   *0x2032ca(%rip)        # 6040f0 <gethostname@GLIBC_2.2.5>
  400e26:	68 1b 00 00 00       	pushq  $0x1b
  400e2b:	e9 30 fe ff ff       	jmpq   400c60 <.plt>

0000000000400e30 <exit@plt>:
  400e30:	ff 25 c2 32 20 00    	jmpq   *0x2032c2(%rip)        # 6040f8 <exit@GLIBC_2.2.5>
  400e36:	68 1c 00 00 00       	pushq  $0x1c
  400e3b:	e9 20 fe ff ff       	jmpq   400c60 <.plt>

0000000000400e40 <connect@plt>:
  400e40:	ff 25 ba 32 20 00    	jmpq   *0x2032ba(%rip)        # 604100 <connect@GLIBC_2.2.5>
  400e46:	68 1d 00 00 00       	pushq  $0x1d
  400e4b:	e9 10 fe ff ff       	jmpq   400c60 <.plt>

0000000000400e50 <__fprintf_chk@plt>:
  400e50:	ff 25 b2 32 20 00    	jmpq   *0x2032b2(%rip)        # 604108 <__fprintf_chk@GLIBC_2.3.4>
  400e56:	68 1e 00 00 00       	pushq  $0x1e
  400e5b:	e9 00 fe ff ff       	jmpq   400c60 <.plt>

0000000000400e60 <__sprintf_chk@plt>:
  400e60:	ff 25 aa 32 20 00    	jmpq   *0x2032aa(%rip)        # 604110 <__sprintf_chk@GLIBC_2.3.4>
  400e66:	68 1f 00 00 00       	pushq  $0x1f
  400e6b:	e9 f0 fd ff ff       	jmpq   400c60 <.plt>

0000000000400e70 <socket@plt>:
  400e70:	ff 25 a2 32 20 00    	jmpq   *0x2032a2(%rip)        # 604118 <socket@GLIBC_2.2.5>
  400e76:	68 20 00 00 00       	pushq  $0x20
  400e7b:	e9 e0 fd ff ff       	jmpq   400c60 <.plt>

Disassembly of section .text:

0000000000400e80 <_start>:
  400e80:	31 ed                	xor    %ebp,%ebp
  400e82:	49 89 d1             	mov    %rdx,%r9
  400e85:	5e                   	pop    %rsi
  400e86:	48 89 e2             	mov    %rsp,%rdx
  400e89:	48 83 e4 f0          	and    $0xfffffffffffffff0,%rsp
  400e8d:	50                   	push   %rax
  400e8e:	54                   	push   %rsp
  400e8f:	49 c7 c0 00 2f 40 00 	mov    $0x402f00,%r8
  400e96:	48 c7 c1 90 2e 40 00 	mov    $0x402e90,%rcx
  400e9d:	48 c7 c7 73 11 40 00 	mov    $0x401173,%rdi
  400ea4:	ff 15 46 31 20 00    	callq  *0x203146(%rip)        # 603ff0 <__libc_start_main@GLIBC_2.2.5>
  400eaa:	f4                   	hlt    
  400eab:	0f 1f 44 00 00       	nopl   0x0(%rax,%rax,1)

0000000000400eb0 <_dl_relocate_static_pie>:
  400eb0:	f3 c3                	repz retq 
  400eb2:	66 2e 0f 1f 84 00 00 	nopw   %cs:0x0(%rax,%rax,1)
  400eb9:	00 00 00 
  400ebc:	0f 1f 40 00          	nopl   0x0(%rax)

0000000000400ec0 <deregister_tm_clones>:
  400ec0:	55                   	push   %rbp
  400ec1:	b8 90 44 60 00       	mov    $0x604490,%eax
  400ec6:	48 3d 90 44 60 00    	cmp    $0x604490,%rax
  400ecc:	48 89 e5             	mov    %rsp,%rbp
  400ecf:	74 17                	je     400ee8 <deregister_tm_clones+0x28>
  400ed1:	b8 00 00 00 00       	mov    $0x0,%eax
  400ed6:	48 85 c0             	test   %rax,%rax
  400ed9:	74 0d                	je     400ee8 <deregister_tm_clones+0x28>
  400edb:	5d                   	pop    %rbp
  400edc:	bf 90 44 60 00       	mov    $0x604490,%edi
  400ee1:	ff e0                	jmpq   *%rax
  400ee3:	0f 1f 44 00 00       	nopl   0x0(%rax,%rax,1)
  400ee8:	5d                   	pop    %rbp
  400ee9:	c3                   	retq   
  400eea:	66 0f 1f 44 00 00    	nopw   0x0(%rax,%rax,1)

0000000000400ef0 <register_tm_clones>:
  400ef0:	be 90 44 60 00       	mov    $0x604490,%esi
  400ef5:	55                   	push   %rbp
  400ef6:	48 81 ee 90 44 60 00 	sub    $0x604490,%rsi
  400efd:	48 89 e5             	mov    %rsp,%rbp
  400f00:	48 c1 fe 03          	sar    $0x3,%rsi
  400f04:	48 89 f0             	mov    %rsi,%rax
  400f07:	48 c1 e8 3f          	shr    $0x3f,%rax
  400f0b:	48 01 c6             	add    %rax,%rsi
  400f0e:	48 d1 fe             	sar    %rsi
  400f11:	74 15                	je     400f28 <register_tm_clones+0x38>
  400f13:	b8 00 00 00 00       	mov    $0x0,%eax
  400f18:	48 85 c0             	test   %rax,%rax
  400f1b:	74 0b                	je     400f28 <register_tm_clones+0x38>
  400f1d:	5d                   	pop    %rbp
  400f1e:	bf 90 44 60 00       	mov    $0x604490,%edi
  400f23:	ff e0                	jmpq   *%rax
  400f25:	0f 1f 00             	nopl   (%rax)
  400f28:	5d                   	pop    %rbp
  400f29:	c3                   	retq   
  400f2a:	66 0f 1f 44 00 00    	nopw   0x0(%rax,%rax,1)

0000000000400f30 <__do_global_dtors_aux>:
  400f30:	80 3d 91 35 20 00 00 	cmpb   $0x0,0x203591(%rip)        # 6044c8 <completed.7697>
  400f37:	75 17                	jne    400f50 <__do_global_dtors_aux+0x20>
  400f39:	55                   	push   %rbp
  400f3a:	48 89 e5             	mov    %rsp,%rbp
  400f3d:	e8 7e ff ff ff       	callq  400ec0 <deregister_tm_clones>
  400f42:	c6 05 7f 35 20 00 01 	movb   $0x1,0x20357f(%rip)        # 6044c8 <completed.7697>
  400f49:	5d                   	pop    %rbp
  400f4a:	c3                   	retq   
  400f4b:	0f 1f 44 00 00       	nopl   0x0(%rax,%rax,1)
  400f50:	f3 c3                	repz retq 
  400f52:	0f 1f 40 00          	nopl   0x0(%rax)
  400f56:	66 2e 0f 1f 84 00 00 	nopw   %cs:0x0(%rax,%rax,1)
  400f5d:	00 00 00 

0000000000400f60 <frame_dummy>:
  400f60:	55                   	push   %rbp
  400f61:	48 89 e5             	mov    %rsp,%rbp
  400f64:	5d                   	pop    %rbp
  400f65:	eb 89                	jmp    400ef0 <register_tm_clones>

0000000000400f67 <usage>:
  400f67:	48 83 ec 08          	sub    $0x8,%rsp
  400f6b:	48 89 fa             	mov    %rdi,%rdx
  400f6e:	83 3d 93 35 20 00 00 	cmpl   $0x0,0x203593(%rip)        # 604508 <is_checker>
  400f75:	74 46                	je     400fbd <usage+0x56>
  400f77:	be 18 2f 40 00       	mov    $0x402f18,%esi
  400f7c:	bf 01 00 00 00       	mov    $0x1,%edi
  400f81:	b8 00 00 00 00       	mov    $0x0,%eax
  400f86:	e8 55 fe ff ff       	callq  400de0 <__printf_chk@plt>
  400f8b:	bf 50 2f 40 00       	mov    $0x402f50,%edi
  400f90:	e8 2b fd ff ff       	callq  400cc0 <puts@plt>
  400f95:	bf c8 30 40 00       	mov    $0x4030c8,%edi
  400f9a:	e8 21 fd ff ff       	callq  400cc0 <puts@plt>
  400f9f:	bf 78 2f 40 00       	mov    $0x402f78,%edi
  400fa4:	e8 17 fd ff ff       	callq  400cc0 <puts@plt>
  400fa9:	bf e2 30 40 00       	mov    $0x4030e2,%edi
  400fae:	e8 0d fd ff ff       	callq  400cc0 <puts@plt>
  400fb3:	bf 00 00 00 00       	mov    $0x0,%edi
  400fb8:	e8 73 fe ff ff       	callq  400e30 <exit@plt>
  400fbd:	be fe 30 40 00       	mov    $0x4030fe,%esi
  400fc2:	bf 01 00 00 00       	mov    $0x1,%edi
  400fc7:	b8 00 00 00 00       	mov    $0x0,%eax
  400fcc:	e8 0f fe ff ff       	callq  400de0 <__printf_chk@plt>
  400fd1:	bf a0 2f 40 00       	mov    $0x402fa0,%edi
  400fd6:	e8 e5 fc ff ff       	callq  400cc0 <puts@plt>
  400fdb:	bf c8 2f 40 00       	mov    $0x402fc8,%edi
  400fe0:	e8 db fc ff ff       	callq  400cc0 <puts@plt>
  400fe5:	bf 1c 31 40 00       	mov    $0x40311c,%edi
  400fea:	e8 d1 fc ff ff       	callq  400cc0 <puts@plt>
  400fef:	eb c2                	jmp    400fb3 <usage+0x4c>

0000000000400ff1 <initialize_target>:
  400ff1:	55                   	push   %rbp
  400ff2:	53                   	push   %rbx
  400ff3:	48 81 ec 18 21 00 00 	sub    $0x2118,%rsp
  400ffa:	89 f5                	mov    %esi,%ebp
  400ffc:	64 48 8b 04 25 28 00 	mov    %fs:0x28,%rax
  401003:	00 00 
  401005:	48 89 84 24 08 21 00 	mov    %rax,0x2108(%rsp)
  40100c:	00 
  40100d:	31 c0                	xor    %eax,%eax
  40100f:	89 3d e3 34 20 00    	mov    %edi,0x2034e3(%rip)        # 6044f8 <check_level>
  401015:	8b 3d 2d 31 20 00    	mov    0x20312d(%rip),%edi        # 604148 <target_id>
  40101b:	e8 45 1e 00 00       	callq  402e65 <gencookie>
  401020:	89 05 de 34 20 00    	mov    %eax,0x2034de(%rip)        # 604504 <cookie>
  401026:	89 c7                	mov    %eax,%edi
  401028:	e8 38 1e 00 00       	callq  402e65 <gencookie>
  40102d:	89 05 cd 34 20 00    	mov    %eax,0x2034cd(%rip)        # 604500 <authkey>
  401033:	8b 05 0f 31 20 00    	mov    0x20310f(%rip),%eax        # 604148 <target_id>
  401039:	8d 78 01             	lea    0x1(%rax),%edi
  40103c:	e8 4f fc ff ff       	callq  400c90 <srandom@plt>
  401041:	e8 5a fd ff ff       	callq  400da0 <random@plt>
  401046:	89 c7                	mov    %eax,%edi
  401048:	e8 f2 02 00 00       	callq  40133f <scramble>
  40104d:	89 c3                	mov    %eax,%ebx
  40104f:	85 ed                	test   %ebp,%ebp
  401051:	75 54                	jne    4010a7 <initialize_target+0xb6>
  401053:	b8 00 00 00 00       	mov    $0x0,%eax
  401058:	01 d8                	add    %ebx,%eax
  40105a:	0f b7 c0             	movzwl %ax,%eax
  40105d:	8d 04 c5 00 01 00 00 	lea    0x100(,%rax,8),%eax
  401064:	89 c0                	mov    %eax,%eax
  401066:	48 89 05 13 34 20 00 	mov    %rax,0x203413(%rip)        # 604480 <buf_offset>
  40106d:	c6 05 b4 40 20 00 63 	movb   $0x63,0x2040b4(%rip)        # 605128 <target_prefix>
  401074:	83 3d 0d 34 20 00 00 	cmpl   $0x0,0x20340d(%rip)        # 604488 <notify>
  40107b:	74 09                	je     401086 <initialize_target+0x95>
  40107d:	83 3d 84 34 20 00 00 	cmpl   $0x0,0x203484(%rip)        # 604508 <is_checker>
  401084:	74 39                	je     4010bf <initialize_target+0xce>
  401086:	48 8b 84 24 08 21 00 	mov    0x2108(%rsp),%rax
  40108d:	00 
  40108e:	64 48 33 04 25 28 00 	xor    %fs:0x28,%rax
  401095:	00 00 
  401097:	0f 85 d1 00 00 00    	jne    40116e <initialize_target+0x17d>
  40109d:	48 81 c4 18 21 00 00 	add    $0x2118,%rsp
  4010a4:	5b                   	pop    %rbx
  4010a5:	5d                   	pop    %rbp
  4010a6:	c3                   	retq   
  4010a7:	bf 00 00 00 00       	mov    $0x0,%edi
  4010ac:	e8 df fc ff ff       	callq  400d90 <time@plt>
  4010b1:	89 c7                	mov    %eax,%edi
  4010b3:	e8 d8 fb ff ff       	callq  400c90 <srandom@plt>
  4010b8:	e8 e3 fc ff ff       	callq  400da0 <random@plt>
  4010bd:	eb 99                	jmp    401058 <initialize_target+0x67>
  4010bf:	be 00 01 00 00       	mov    $0x100,%esi
  4010c4:	48 89 e7             	mov    %rsp,%rdi
  4010c7:	e8 54 fd ff ff       	callq  400e20 <gethostname@plt>
  4010cc:	89 c5                	mov    %eax,%ebp
  4010ce:	85 c0                	test   %eax,%eax
  4010d0:	75 23                	jne    4010f5 <initialize_target+0x104>
  4010d2:	89 c3                	mov    %eax,%ebx
  4010d4:	48 63 c3             	movslq %ebx,%rax
  4010d7:	48 8b 3c c5 60 41 60 	mov    0x604160(,%rax,8),%rdi
  4010de:	00 
  4010df:	48 85 ff             	test   %rdi,%rdi
  4010e2:	74 2a                	je     40110e <initialize_target+0x11d>
  4010e4:	48 89 e6             	mov    %rsp,%rsi
  4010e7:	e8 84 fb ff ff       	callq  400c70 <strcasecmp@plt>
  4010ec:	85 c0                	test   %eax,%eax
  4010ee:	74 19                	je     401109 <initialize_target+0x118>
  4010f0:	83 c3 01             	add    $0x1,%ebx
  4010f3:	eb df                	jmp    4010d4 <initialize_target+0xe3>
  4010f5:	bf f8 2f 40 00       	mov    $0x402ff8,%edi
  4010fa:	e8 c1 fb ff ff       	callq  400cc0 <puts@plt>
  4010ff:	bf 08 00 00 00       	mov    $0x8,%edi
  401104:	e8 27 fd ff ff       	callq  400e30 <exit@plt>
  401109:	bd 01 00 00 00       	mov    $0x1,%ebp
  40110e:	85 ed                	test   %ebp,%ebp
  401110:	74 3b                	je     40114d <initialize_target+0x15c>
  401112:	48 8d bc 24 00 01 00 	lea    0x100(%rsp),%rdi
  401119:	00 
  40111a:	e8 9b 1a 00 00       	callq  402bba <init_driver>
  40111f:	85 c0                	test   %eax,%eax
  401121:	0f 89 5f ff ff ff    	jns    401086 <initialize_target+0x95>
  401127:	48 8d 94 24 00 01 00 	lea    0x100(%rsp),%rdx
  40112e:	00 
  40112f:	be 70 30 40 00       	mov    $0x403070,%esi
  401134:	bf 01 00 00 00       	mov    $0x1,%edi
  401139:	b8 00 00 00 00       	mov    $0x0,%eax
  40113e:	e8 9d fc ff ff       	callq  400de0 <__printf_chk@plt>
  401143:	bf 08 00 00 00       	mov    $0x8,%edi
  401148:	e8 e3 fc ff ff       	callq  400e30 <exit@plt>
  40114d:	48 89 e2             	mov    %rsp,%rdx
  401150:	be 30 30 40 00       	mov    $0x403030,%esi
  401155:	bf 01 00 00 00       	mov    $0x1,%edi
  40115a:	b8 00 00 00 00       	mov    $0x0,%eax
  40115f:	e8 7c fc ff ff       	callq  400de0 <__printf_chk@plt>
  401164:	bf 08 00 00 00       	mov    $0x8,%edi
  401169:	e8 c2 fc ff ff       	callq  400e30 <exit@plt>
  40116e:	e8 6d fb ff ff       	callq  400ce0 <__stack_chk_fail@plt>

0000000000401173 <main>:
  401173:	41 56                	push   %r14
  401175:	41 55                	push   %r13
  401177:	41 54                	push   %r12
  401179:	55                   	push   %rbp
  40117a:	53                   	push   %rbx
  40117b:	41 89 fc             	mov    %edi,%r12d
  40117e:	48 89 f3             	mov    %rsi,%rbx
  401181:	be f7 1e 40 00       	mov    $0x401ef7,%esi
  401186:	bf 0b 00 00 00       	mov    $0xb,%edi
  40118b:	e8 b0 fb ff ff       	callq  400d40 <signal@plt>
  401190:	be a9 1e 40 00       	mov    $0x401ea9,%esi
  401195:	bf 07 00 00 00       	mov    $0x7,%edi
  40119a:	e8 a1 fb ff ff       	callq  400d40 <signal@plt>
  40119f:	be 45 1f 40 00       	mov    $0x401f45,%esi
  4011a4:	bf 04 00 00 00       	mov    $0x4,%edi
  4011a9:	e8 92 fb ff ff       	callq  400d40 <signal@plt>
  4011ae:	83 3d 53 33 20 00 00 	cmpl   $0x0,0x203353(%rip)        # 604508 <is_checker>
  4011b5:	75 24                	jne    4011db <main+0x68>
  4011b7:	bd 35 31 40 00       	mov    $0x403135,%ebp
  4011bc:	48 8b 05 dd 32 20 00 	mov    0x2032dd(%rip),%rax        # 6044a0 <stdin@@GLIBC_2.2.5>
  4011c3:	48 89 05 26 33 20 00 	mov    %rax,0x203326(%rip)        # 6044f0 <infile>
  4011ca:	41 bd 00 00 00 00    	mov    $0x0,%r13d
  4011d0:	41 be 00 00 00 00    	mov    $0x0,%r14d
  4011d6:	e9 85 00 00 00       	jmpq   401260 <main+0xed>
  4011db:	be 93 1f 40 00       	mov    $0x401f93,%esi
  4011e0:	bf 0e 00 00 00       	mov    $0xe,%edi
  4011e5:	e8 56 fb ff ff       	callq  400d40 <signal@plt>
  4011ea:	bf 05 00 00 00       	mov    $0x5,%edi
  4011ef:	e8 1c fb ff ff       	callq  400d10 <alarm@plt>
  4011f4:	bd 3a 31 40 00       	mov    $0x40313a,%ebp
  4011f9:	eb c1                	jmp    4011bc <main+0x49>
  4011fb:	48 8b 3b             	mov    (%rbx),%rdi
  4011fe:	e8 64 fd ff ff       	callq  400f67 <usage>
  401203:	be e5 33 40 00       	mov    $0x4033e5,%esi
  401208:	48 8b 3d 99 32 20 00 	mov    0x203299(%rip),%rdi        # 6044a8 <optarg@@GLIBC_2.2.5>
  40120f:	e8 dc fb ff ff       	callq  400df0 <fopen@plt>
  401214:	48 89 05 d5 32 20 00 	mov    %rax,0x2032d5(%rip)        # 6044f0 <infile>
  40121b:	48 85 c0             	test   %rax,%rax
  40121e:	75 40                	jne    401260 <main+0xed>
  401220:	48 8b 0d 81 32 20 00 	mov    0x203281(%rip),%rcx        # 6044a8 <optarg@@GLIBC_2.2.5>
  401227:	ba 42 31 40 00       	mov    $0x403142,%edx
  40122c:	be 01 00 00 00       	mov    $0x1,%esi
  401231:	48 8b 3d 88 32 20 00 	mov    0x203288(%rip),%rdi        # 6044c0 <stderr@@GLIBC_2.2.5>
  401238:	e8 13 fc ff ff       	callq  400e50 <__fprintf_chk@plt>
  40123d:	b8 01 00 00 00       	mov    $0x1,%eax
  401242:	e9 cc 00 00 00       	jmpq   401313 <main+0x1a0>
  401247:	ba 10 00 00 00       	mov    $0x10,%edx
  40124c:	be 00 00 00 00       	mov    $0x0,%esi
  401251:	48 8b 3d 50 32 20 00 	mov    0x203250(%rip),%rdi        # 6044a8 <optarg@@GLIBC_2.2.5>
  401258:	e8 b3 fb ff ff       	callq  400e10 <strtoul@plt>
  40125d:	41 89 c6             	mov    %eax,%r14d
  401260:	48 89 ea             	mov    %rbp,%rdx
  401263:	48 89 de             	mov    %rbx,%rsi
  401266:	44 89 e7             	mov    %r12d,%edi
  401269:	e8 92 fb ff ff       	callq  400e00 <getopt@plt>
  40126e:	3c ff                	cmp    $0xff,%al
  401270:	74 57                	je     4012c9 <main+0x156>
  401272:	0f be d0             	movsbl %al,%edx
  401275:	83 e8 61             	sub    $0x61,%eax
  401278:	3c 10                	cmp    $0x10,%al
  40127a:	77 31                	ja     4012ad <main+0x13a>
  40127c:	0f b6 c0             	movzbl %al,%eax
  40127f:	ff 24 c5 80 31 40 00 	jmpq   *0x403180(,%rax,8)
  401286:	ba 0a 00 00 00       	mov    $0xa,%edx
  40128b:	be 00 00 00 00       	mov    $0x0,%esi
  401290:	48 8b 3d 11 32 20 00 	mov    0x203211(%rip),%rdi        # 6044a8 <optarg@@GLIBC_2.2.5>
  401297:	e8 d4 fa ff ff       	callq  400d70 <strtol@plt>
  40129c:	41 89 c5             	mov    %eax,%r13d
  40129f:	eb bf                	jmp    401260 <main+0xed>
  4012a1:	c7 05 dd 31 20 00 00 	movl   $0x0,0x2031dd(%rip)        # 604488 <notify>
  4012a8:	00 00 00 
  4012ab:	eb b3                	jmp    401260 <main+0xed>
  4012ad:	be 5f 31 40 00       	mov    $0x40315f,%esi
  4012b2:	bf 01 00 00 00       	mov    $0x1,%edi
  4012b7:	b8 00 00 00 00       	mov    $0x0,%eax
  4012bc:	e8 1f fb ff ff       	callq  400de0 <__printf_chk@plt>
  4012c1:	48 8b 3b             	mov    (%rbx),%rdi
  4012c4:	e8 9e fc ff ff       	callq  400f67 <usage>
  4012c9:	be 00 00 00 00       	mov    $0x0,%esi
  4012ce:	44 89 ef             	mov    %r13d,%edi
  4012d1:	e8 1b fd ff ff       	callq  400ff1 <initialize_target>
  4012d6:	83 3d 2b 32 20 00 00 	cmpl   $0x0,0x20322b(%rip)        # 604508 <is_checker>
  4012dd:	74 09                	je     4012e8 <main+0x175>
  4012df:	44 39 35 1a 32 20 00 	cmp    %r14d,0x20321a(%rip)        # 604500 <authkey>
  4012e6:	75 34                	jne    40131c <main+0x1a9>
  4012e8:	8b 15 16 32 20 00    	mov    0x203216(%rip),%edx        # 604504 <cookie>
  4012ee:	be 72 31 40 00       	mov    $0x403172,%esi
  4012f3:	bf 01 00 00 00       	mov    $0x1,%edi
  4012f8:	b8 00 00 00 00       	mov    $0x0,%eax
  4012fd:	e8 de fa ff ff       	callq  400de0 <__printf_chk@plt>
  401302:	48 8b 3d 77 31 20 00 	mov    0x203177(%rip),%rdi        # 604480 <buf_offset>
  401309:	e8 87 0d 00 00       	callq  402095 <stable_launch>
  40130e:	b8 00 00 00 00       	mov    $0x0,%eax
  401313:	5b                   	pop    %rbx
  401314:	5d                   	pop    %rbp
  401315:	41 5c                	pop    %r12
  401317:	41 5d                	pop    %r13
  401319:	41 5e                	pop    %r14
  40131b:	c3                   	retq   
  40131c:	44 89 f2             	mov    %r14d,%edx
  40131f:	be 98 30 40 00       	mov    $0x403098,%esi
  401324:	bf 01 00 00 00       	mov    $0x1,%edi
  401329:	b8 00 00 00 00       	mov    $0x0,%eax
  40132e:	e8 ad fa ff ff       	callq  400de0 <__printf_chk@plt>
  401333:	b8 00 00 00 00       	mov    $0x0,%eax
  401338:	e8 f5 07 00 00       	callq  401b32 <check_fail>
  40133d:	eb a9                	jmp    4012e8 <main+0x175>

000000000040133f <scramble>:
  40133f:	48 83 ec 38          	sub    $0x38,%rsp
  401343:	64 48 8b 04 25 28 00 	mov    %fs:0x28,%rax
  40134a:	00 00 
  40134c:	48 89 44 24 28       	mov    %rax,0x28(%rsp)
  401351:	31 c0                	xor    %eax,%eax
  401353:	eb 10                	jmp    401365 <scramble+0x26>
  401355:	69 d0 ae 3e 00 00    	imul   $0x3eae,%eax,%edx
  40135b:	01 fa                	add    %edi,%edx
  40135d:	89 c1                	mov    %eax,%ecx
  40135f:	89 14 8c             	mov    %edx,(%rsp,%rcx,4)
  401362:	83 c0 01             	add    $0x1,%eax
  401365:	83 f8 09             	cmp    $0x9,%eax
  401368:	76 eb                	jbe    401355 <scramble+0x16>
  40136a:	8b 04 24             	mov    (%rsp),%eax
  40136d:	69 c0 0b d3 00 00    	imul   $0xd30b,%eax,%eax
  401373:	89 04 24             	mov    %eax,(%rsp)
  401376:	8b 44 24 10          	mov    0x10(%rsp),%eax
  40137a:	69 c0 67 f7 00 00    	imul   $0xf767,%eax,%eax
  401380:	89 44 24 10          	mov    %eax,0x10(%rsp)
  401384:	8b 44 24 20          	mov    0x20(%rsp),%eax
  401388:	69 c0 58 02 00 00    	imul   $0x258,%eax,%eax
  40138e:	89 44 24 20          	mov    %eax,0x20(%rsp)
  401392:	8b 44 24 20          	mov    0x20(%rsp),%eax
  401396:	69 c0 93 b4 00 00    	imul   $0xb493,%eax,%eax
  40139c:	89 44 24 20          	mov    %eax,0x20(%rsp)
  4013a0:	8b 44 24 1c          	mov    0x1c(%rsp),%eax
  4013a4:	69 c0 42 1a 00 00    	imul   $0x1a42,%eax,%eax
  4013aa:	89 44 24 1c          	mov    %eax,0x1c(%rsp)
  4013ae:	8b 44 24 0c          	mov    0xc(%rsp),%eax
  4013b2:	69 c0 ec d8 00 00    	imul   $0xd8ec,%eax,%eax
  4013b8:	89 44 24 0c          	mov    %eax,0xc(%rsp)
  4013bc:	8b 44 24 18          	mov    0x18(%rsp),%eax
  4013c0:	69 c0 3d e1 00 00    	imul   $0xe13d,%eax,%eax
  4013c6:	89 44 24 18          	mov    %eax,0x18(%rsp)
  4013ca:	8b 04 24             	mov    (%rsp),%eax
  4013cd:	69 c0 f8 61 00 00    	imul   $0x61f8,%eax,%eax
  4013d3:	89 04 24             	mov    %eax,(%rsp)
  4013d6:	8b 44 24 0c          	mov    0xc(%rsp),%eax
  4013da:	69 c0 2a 9c 00 00    	imul   $0x9c2a,%eax,%eax
  4013e0:	89 44 24 0c          	mov    %eax,0xc(%rsp)
  4013e4:	8b 44 24 04          	mov    0x4(%rsp),%eax
  4013e8:	69 c0 bd fd 00 00    	imul   $0xfdbd,%eax,%eax
  4013ee:	89 44 24 04          	mov    %eax,0x4(%rsp)
  4013f2:	8b 44 24 24          	mov    0x24(%rsp),%eax
  4013f6:	69 c0 1a 99 00 00    	imul   $0x991a,%eax,%eax
  4013fc:	89 44 24 24          	mov    %eax,0x24(%rsp)
  401400:	8b 44 24 04          	mov    0x4(%rsp),%eax
  401404:	69 c0 84 18 00 00    	imul   $0x1884,%eax,%eax
  40140a:	89 44 24 04          	mov    %eax,0x4(%rsp)
  40140e:	8b 44 24 24          	mov    0x24(%rsp),%eax
  401412:	69 c0 d3 14 00 00    	imul   $0x14d3,%eax,%eax
  401418:	89 44 24 24          	mov    %eax,0x24(%rsp)
  40141c:	8b 04 24             	mov    (%rsp),%eax
  40141f:	69 c0 84 4c 00 00    	imul   $0x4c84,%eax,%eax
  401425:	89 04 24             	mov    %eax,(%rsp)
  401428:	8b 44 24 24          	mov    0x24(%rsp),%eax
  40142c:	69 c0 8f a9 00 00    	imul   $0xa98f,%eax,%eax
  401432:	89 44 24 24          	mov    %eax,0x24(%rsp)
  401436:	8b 44 24 10          	mov    0x10(%rsp),%eax
  40143a:	69 c0 f0 73 00 00    	imul   $0x73f0,%eax,%eax
  401440:	89 44 24 10          	mov    %eax,0x10(%rsp)
  401444:	8b 44 24 08          	mov    0x8(%rsp),%eax
  401448:	69 c0 39 3a 00 00    	imul   $0x3a39,%eax,%eax
  40144e:	89 44 24 08          	mov    %eax,0x8(%rsp)
  401452:	8b 44 24 0c          	mov    0xc(%rsp),%eax
  401456:	69 c0 11 77 00 00    	imul   $0x7711,%eax,%eax
  40145c:	89 44 24 0c          	mov    %eax,0xc(%rsp)
  401460:	8b 04 24             	mov    (%rsp),%eax
  401463:	69 c0 74 23 00 00    	imul   $0x2374,%eax,%eax
  401469:	89 04 24             	mov    %eax,(%rsp)
  40146c:	8b 44 24 20          	mov    0x20(%rsp),%eax
  401470:	69 c0 8d 1f 00 00    	imul   $0x1f8d,%eax,%eax
  401476:	89 44 24 20          	mov    %eax,0x20(%rsp)
  40147a:	8b 44 24 14          	mov    0x14(%rsp),%eax
  40147e:	69 c0 7d ce 00 00    	imul   $0xce7d,%eax,%eax
  401484:	89 44 24 14          	mov    %eax,0x14(%rsp)
  401488:	8b 44 24 10          	mov    0x10(%rsp),%eax
  40148c:	69 c0 8c d1 00 00    	imul   $0xd18c,%eax,%eax
  401492:	89 44 24 10          	mov    %eax,0x10(%rsp)
  401496:	8b 44 24 10          	mov    0x10(%rsp),%eax
  40149a:	69 c0 8b fe 00 00    	imul   $0xfe8b,%eax,%eax
  4014a0:	89 44 24 10          	mov    %eax,0x10(%rsp)
  4014a4:	8b 44 24 18          	mov    0x18(%rsp),%eax
  4014a8:	69 c0 2f a3 00 00    	imul   $0xa32f,%eax,%eax
  4014ae:	89 44 24 18          	mov    %eax,0x18(%rsp)
  4014b2:	8b 44 24 10          	mov    0x10(%rsp),%eax
  4014b6:	69 c0 a9 31 00 00    	imul   $0x31a9,%eax,%eax
  4014bc:	89 44 24 10          	mov    %eax,0x10(%rsp)
  4014c0:	8b 44 24 18          	mov    0x18(%rsp),%eax
  4014c4:	69 c0 8f d2 00 00    	imul   $0xd28f,%eax,%eax
  4014ca:	89 44 24 18          	mov    %eax,0x18(%rsp)
  4014ce:	8b 44 24 0c          	mov    0xc(%rsp),%eax
  4014d2:	69 c0 ab d4 00 00    	imul   $0xd4ab,%eax,%eax
  4014d8:	89 44 24 0c          	mov    %eax,0xc(%rsp)
  4014dc:	8b 44 24 10          	mov    0x10(%rsp),%eax
  4014e0:	69 c0 6b 8f 00 00    	imul   $0x8f6b,%eax,%eax
  4014e6:	89 44 24 10          	mov    %eax,0x10(%rsp)
  4014ea:	8b 44 24 08          	mov    0x8(%rsp),%eax
  4014ee:	69 c0 67 92 00 00    	imul   $0x9267,%eax,%eax
  4014f4:	89 44 24 08          	mov    %eax,0x8(%rsp)
  4014f8:	8b 44 24 08          	mov    0x8(%rsp),%eax
  4014fc:	69 c0 c0 1e 00 00    	imul   $0x1ec0,%eax,%eax
  401502:	89 44 24 08          	mov    %eax,0x8(%rsp)
  401506:	8b 44 24 14          	mov    0x14(%rsp),%eax
  40150a:	69 c0 bd b6 00 00    	imul   $0xb6bd,%eax,%eax
  401510:	89 44 24 14          	mov    %eax,0x14(%rsp)
  401514:	8b 44 24 10          	mov    0x10(%rsp),%eax
  401518:	69 c0 91 b8 00 00    	imul   $0xb891,%eax,%eax
  40151e:	89 44 24 10          	mov    %eax,0x10(%rsp)
  401522:	8b 04 24             	mov    (%rsp),%eax
  401525:	69 c0 09 fe 00 00    	imul   $0xfe09,%eax,%eax
  40152b:	89 04 24             	mov    %eax,(%rsp)
  40152e:	8b 44 24 24          	mov    0x24(%rsp),%eax
  401532:	69 c0 87 2d 00 00    	imul   $0x2d87,%eax,%eax
  401538:	89 44 24 24          	mov    %eax,0x24(%rsp)
  40153c:	8b 44 24 0c          	mov    0xc(%rsp),%eax
  401540:	69 c0 46 5b 00 00    	imul   $0x5b46,%eax,%eax
  401546:	89 44 24 0c          	mov    %eax,0xc(%rsp)
  40154a:	8b 44 24 04          	mov    0x4(%rsp),%eax
  40154e:	69 c0 33 5f 00 00    	imul   $0x5f33,%eax,%eax
  401554:	89 44 24 04          	mov    %eax,0x4(%rsp)
  401558:	8b 44 24 24          	mov    0x24(%rsp),%eax
  40155c:	69 c0 8e 45 00 00    	imul   $0x458e,%eax,%eax
  401562:	89 44 24 24          	mov    %eax,0x24(%rsp)
  401566:	8b 44 24 08          	mov    0x8(%rsp),%eax
  40156a:	69 c0 7d d9 00 00    	imul   $0xd97d,%eax,%eax
  401570:	89 44 24 08          	mov    %eax,0x8(%rsp)
  401574:	8b 44 24 10          	mov    0x10(%rsp),%eax
  401578:	69 c0 43 64 00 00    	imul   $0x6443,%eax,%eax
  40157e:	89 44 24 10          	mov    %eax,0x10(%rsp)
  401582:	8b 44 24 14          	mov    0x14(%rsp),%eax
  401586:	69 c0 d0 de 00 00    	imul   $0xded0,%eax,%eax
  40158c:	89 44 24 14          	mov    %eax,0x14(%rsp)
  401590:	8b 44 24 1c          	mov    0x1c(%rsp),%eax
  401594:	69 c0 98 1d 00 00    	imul   $0x1d98,%eax,%eax
  40159a:	89 44 24 1c          	mov    %eax,0x1c(%rsp)
  40159e:	8b 44 24 18          	mov    0x18(%rsp),%eax
  4015a2:	69 c0 b1 60 00 00    	imul   $0x60b1,%eax,%eax
  4015a8:	89 44 24 18          	mov    %eax,0x18(%rsp)
  4015ac:	8b 44 24 08          	mov    0x8(%rsp),%eax
  4015b0:	69 c0 73 9c 00 00    	imul   $0x9c73,%eax,%eax
  4015b6:	89 44 24 08          	mov    %eax,0x8(%rsp)
  4015ba:	8b 44 24 18          	mov    0x18(%rsp),%eax
  4015be:	69 c0 c2 db 00 00    	imul   $0xdbc2,%eax,%eax
  4015c4:	89 44 24 18          	mov    %eax,0x18(%rsp)
  4015c8:	8b 44 24 14          	mov    0x14(%rsp),%eax
  4015cc:	69 c0 0c cc 00 00    	imul   $0xcc0c,%eax,%eax
  4015d2:	89 44 24 14          	mov    %eax,0x14(%rsp)
  4015d6:	8b 44 24 24          	mov    0x24(%rsp),%eax
  4015da:	69 c0 d0 6a 00 00    	imul   $0x6ad0,%eax,%eax
  4015e0:	89 44 24 24          	mov    %eax,0x24(%rsp)
  4015e4:	8b 44 24 24          	mov    0x24(%rsp),%eax
  4015e8:	69 c0 34 8d 00 00    	imul   $0x8d34,%eax,%eax
  4015ee:	89 44 24 24          	mov    %eax,0x24(%rsp)
  4015f2:	8b 44 24 24          	mov    0x24(%rsp),%eax
  4015f6:	69 c0 bf 73 00 00    	imul   $0x73bf,%eax,%eax
  4015fc:	89 44 24 24          	mov    %eax,0x24(%rsp)
  401600:	8b 44 24 14          	mov    0x14(%rsp),%eax
  401604:	69 c0 03 53 00 00    	imul   $0x5303,%eax,%eax
  40160a:	89 44 24 14          	mov    %eax,0x14(%rsp)
  40160e:	8b 44 24 0c          	mov    0xc(%rsp),%eax
  401612:	69 c0 ba ac 00 00    	imul   $0xacba,%eax,%eax
  401618:	89 44 24 0c          	mov    %eax,0xc(%rsp)
  40161c:	8b 44 24 1c          	mov    0x1c(%rsp),%eax
  401620:	69 c0 5c ee 00 00    	imul   $0xee5c,%eax,%eax
  401626:	89 44 24 1c          	mov    %eax,0x1c(%rsp)
  40162a:	8b 44 24 20          	mov    0x20(%rsp),%eax
  40162e:	69 c0 0c d8 00 00    	imul   $0xd80c,%eax,%eax
  401634:	89 44 24 20          	mov    %eax,0x20(%rsp)
  401638:	8b 44 24 08          	mov    0x8(%rsp),%eax
  40163c:	69 c0 ad 3c 00 00    	imul   $0x3cad,%eax,%eax
  401642:	89 44 24 08          	mov    %eax,0x8(%rsp)
  401646:	8b 44 24 10          	mov    0x10(%rsp),%eax
  40164a:	69 c0 04 78 00 00    	imul   $0x7804,%eax,%eax
  401650:	89 44 24 10          	mov    %eax,0x10(%rsp)
  401654:	8b 04 24             	mov    (%rsp),%eax
  401657:	69 c0 36 2e 00 00    	imul   $0x2e36,%eax,%eax
  40165d:	89 04 24             	mov    %eax,(%rsp)
  401660:	8b 44 24 24          	mov    0x24(%rsp),%eax
  401664:	69 c0 dd 36 00 00    	imul   $0x36dd,%eax,%eax
  40166a:	89 44 24 24          	mov    %eax,0x24(%rsp)
  40166e:	8b 44 24 08          	mov    0x8(%rsp),%eax
  401672:	69 c0 34 08 00 00    	imul   $0x834,%eax,%eax
  401678:	89 44 24 08          	mov    %eax,0x8(%rsp)
  40167c:	8b 44 24 0c          	mov    0xc(%rsp),%eax
  401680:	69 c0 13 3e 00 00    	imul   $0x3e13,%eax,%eax
  401686:	89 44 24 0c          	mov    %eax,0xc(%rsp)
  40168a:	8b 44 24 1c          	mov    0x1c(%rsp),%eax
  40168e:	69 c0 ab 87 00 00    	imul   $0x87ab,%eax,%eax
  401694:	89 44 24 1c          	mov    %eax,0x1c(%rsp)
  401698:	8b 44 24 04          	mov    0x4(%rsp),%eax
  40169c:	69 c0 81 d3 00 00    	imul   $0xd381,%eax,%eax
  4016a2:	89 44 24 04          	mov    %eax,0x4(%rsp)
  4016a6:	8b 44 24 24          	mov    0x24(%rsp),%eax
  4016aa:	69 c0 58 14 00 00    	imul   $0x1458,%eax,%eax
  4016b0:	89 44 24 24          	mov    %eax,0x24(%rsp)
  4016b4:	8b 44 24 18          	mov    0x18(%rsp),%eax
  4016b8:	69 c0 81 d6 00 00    	imul   $0xd681,%eax,%eax
  4016be:	89 44 24 18          	mov    %eax,0x18(%rsp)
  4016c2:	8b 44 24 20          	mov    0x20(%rsp),%eax
  4016c6:	69 c0 b3 61 00 00    	imul   $0x61b3,%eax,%eax
  4016cc:	89 44 24 20          	mov    %eax,0x20(%rsp)
  4016d0:	8b 44 24 08          	mov    0x8(%rsp),%eax
  4016d4:	69 c0 c9 2c 00 00    	imul   $0x2cc9,%eax,%eax
  4016da:	89 44 24 08          	mov    %eax,0x8(%rsp)
  4016de:	8b 44 24 1c          	mov    0x1c(%rsp),%eax
  4016e2:	69 c0 87 eb 00 00    	imul   $0xeb87,%eax,%eax
  4016e8:	89 44 24 1c          	mov    %eax,0x1c(%rsp)
  4016ec:	8b 44 24 0c          	mov    0xc(%rsp),%eax
  4016f0:	69 c0 00 63 00 00    	imul   $0x6300,%eax,%eax
  4016f6:	89 44 24 0c          	mov    %eax,0xc(%rsp)
  4016fa:	8b 04 24             	mov    (%rsp),%eax
  4016fd:	69 c0 71 e5 00 00    	imul   $0xe571,%eax,%eax
  401703:	89 04 24             	mov    %eax,(%rsp)
  401706:	8b 44 24 18          	mov    0x18(%rsp),%eax
  40170a:	69 c0 ce 0d 00 00    	imul   $0xdce,%eax,%eax
  401710:	89 44 24 18          	mov    %eax,0x18(%rsp)
  401714:	8b 44 24 10          	mov    0x10(%rsp),%eax
  401718:	69 c0 96 ec 00 00    	imul   $0xec96,%eax,%eax
  40171e:	89 44 24 10          	mov    %eax,0x10(%rsp)
  401722:	8b 44 24 04          	mov    0x4(%rsp),%eax
  401726:	69 c0 0e c3 00 00    	imul   $0xc30e,%eax,%eax
  40172c:	89 44 24 04          	mov    %eax,0x4(%rsp)
  401730:	8b 44 24 10          	mov    0x10(%rsp),%eax
  401734:	69 c0 a7 dc 00 00    	imul   $0xdca7,%eax,%eax
  40173a:	89 44 24 10          	mov    %eax,0x10(%rsp)
  40173e:	8b 44 24 1c          	mov    0x1c(%rsp),%eax
  401742:	69 c0 9c 66 00 00    	imul   $0x669c,%eax,%eax
  401748:	89 44 24 1c          	mov    %eax,0x1c(%rsp)
  40174c:	8b 44 24 24          	mov    0x24(%rsp),%eax
  401750:	69 c0 7a 91 00 00    	imul   $0x917a,%eax,%eax
  401756:	89 44 24 24          	mov    %eax,0x24(%rsp)
  40175a:	8b 44 24 14          	mov    0x14(%rsp),%eax
  40175e:	69 c0 82 89 00 00    	imul   $0x8982,%eax,%eax
  401764:	89 44 24 14          	mov    %eax,0x14(%rsp)
  401768:	8b 44 24 0c          	mov    0xc(%rsp),%eax
  40176c:	69 c0 84 be 00 00    	imul   $0xbe84,%eax,%eax
  401772:	89 44 24 0c          	mov    %eax,0xc(%rsp)
  401776:	8b 44 24 0c          	mov    0xc(%rsp),%eax
  40177a:	69 c0 dd 6c 00 00    	imul   $0x6cdd,%eax,%eax
  401780:	89 44 24 0c          	mov    %eax,0xc(%rsp)
  401784:	8b 44 24 08          	mov    0x8(%rsp),%eax
  401788:	69 c0 54 9b 00 00    	imul   $0x9b54,%eax,%eax
  40178e:	89 44 24 08          	mov    %eax,0x8(%rsp)
  401792:	8b 44 24 14          	mov    0x14(%rsp),%eax
  401796:	69 c0 69 74 00 00    	imul   $0x7469,%eax,%eax
  40179c:	89 44 24 14          	mov    %eax,0x14(%rsp)
  4017a0:	8b 44 24 04          	mov    0x4(%rsp),%eax
  4017a4:	69 c0 9e 8d 00 00    	imul   $0x8d9e,%eax,%eax
  4017aa:	89 44 24 04          	mov    %eax,0x4(%rsp)
  4017ae:	8b 44 24 18          	mov    0x18(%rsp),%eax
  4017b2:	69 c0 be b1 00 00    	imul   $0xb1be,%eax,%eax
  4017b8:	89 44 24 18          	mov    %eax,0x18(%rsp)
  4017bc:	8b 44 24 10          	mov    0x10(%rsp),%eax
  4017c0:	69 c0 b6 7a 00 00    	imul   $0x7ab6,%eax,%eax
  4017c6:	89 44 24 10          	mov    %eax,0x10(%rsp)
  4017ca:	8b 44 24 14          	mov    0x14(%rsp),%eax
  4017ce:	69 c0 09 53 00 00    	imul   $0x5309,%eax,%eax
  4017d4:	89 44 24 14          	mov    %eax,0x14(%rsp)
  4017d8:	8b 44 24 0c          	mov    0xc(%rsp),%eax
  4017dc:	69 c0 ca 4f 00 00    	imul   $0x4fca,%eax,%eax
  4017e2:	89 44 24 0c          	mov    %eax,0xc(%rsp)
  4017e6:	8b 44 24 04          	mov    0x4(%rsp),%eax
  4017ea:	69 c0 45 82 00 00    	imul   $0x8245,%eax,%eax
  4017f0:	89 44 24 04          	mov    %eax,0x4(%rsp)
  4017f4:	8b 44 24 18          	mov    0x18(%rsp),%eax
  4017f8:	69 c0 aa e6 00 00    	imul   $0xe6aa,%eax,%eax
  4017fe:	89 44 24 18          	mov    %eax,0x18(%rsp)
  401802:	8b 44 24 1c          	mov    0x1c(%rsp),%eax
  401806:	69 c0 2e 57 00 00    	imul   $0x572e,%eax,%eax
  40180c:	89 44 24 1c          	mov    %eax,0x1c(%rsp)
  401810:	8b 44 24 18          	mov    0x18(%rsp),%eax
  401814:	69 c0 40 3f 00 00    	imul   $0x3f40,%eax,%eax
  40181a:	89 44 24 18          	mov    %eax,0x18(%rsp)
  40181e:	8b 04 24             	mov    (%rsp),%eax
  401821:	69 c0 2c a8 00 00    	imul   $0xa82c,%eax,%eax
  401827:	89 04 24             	mov    %eax,(%rsp)
  40182a:	8b 44 24 20          	mov    0x20(%rsp),%eax
  40182e:	69 c0 79 62 00 00    	imul   $0x6279,%eax,%eax
  401834:	89 44 24 20          	mov    %eax,0x20(%rsp)
  401838:	8b 44 24 0c          	mov    0xc(%rsp),%eax
  40183c:	69 c0 e0 e9 00 00    	imul   $0xe9e0,%eax,%eax
  401842:	89 44 24 0c          	mov    %eax,0xc(%rsp)
  401846:	8b 44 24 14          	mov    0x14(%rsp),%eax
  40184a:	69 c0 b1 8e 00 00    	imul   $0x8eb1,%eax,%eax
  401850:	89 44 24 14          	mov    %eax,0x14(%rsp)
  401854:	8b 44 24 1c          	mov    0x1c(%rsp),%eax
  401858:	69 c0 da f3 00 00    	imul   $0xf3da,%eax,%eax
  40185e:	89 44 24 1c          	mov    %eax,0x1c(%rsp)
  401862:	8b 44 24 08          	mov    0x8(%rsp),%eax
  401866:	69 c0 1b 9a 00 00    	imul   $0x9a1b,%eax,%eax
  40186c:	89 44 24 08          	mov    %eax,0x8(%rsp)
  401870:	8b 44 24 04          	mov    0x4(%rsp),%eax
  401874:	69 c0 0d 27 00 00    	imul   $0x270d,%eax,%eax
  40187a:	89 44 24 04          	mov    %eax,0x4(%rsp)
  40187e:	8b 44 24 0c          	mov    0xc(%rsp),%eax
  401882:	69 c0 77 09 00 00    	imul   $0x977,%eax,%eax
  401888:	89 44 24 0c          	mov    %eax,0xc(%rsp)
  40188c:	8b 44 24 0c          	mov    0xc(%rsp),%eax
  401890:	69 c0 df a0 00 00    	imul   $0xa0df,%eax,%eax
  401896:	89 44 24 0c          	mov    %eax,0xc(%rsp)
  40189a:	8b 44 24 24          	mov    0x24(%rsp),%eax
  40189e:	69 c0 89 ed 00 00    	imul   $0xed89,%eax,%eax
  4018a4:	89 44 24 24          	mov    %eax,0x24(%rsp)
  4018a8:	ba 00 00 00 00       	mov    $0x0,%edx
  4018ad:	b8 00 00 00 00       	mov    $0x0,%eax
  4018b2:	eb 0a                	jmp    4018be <scramble+0x57f>
  4018b4:	89 d1                	mov    %edx,%ecx
  4018b6:	8b 0c 8c             	mov    (%rsp,%rcx,4),%ecx
  4018b9:	01 c8                	add    %ecx,%eax
  4018bb:	83 c2 01             	add    $0x1,%edx
  4018be:	83 fa 09             	cmp    $0x9,%edx
  4018c1:	76 f1                	jbe    4018b4 <scramble+0x575>
  4018c3:	48 8b 74 24 28       	mov    0x28(%rsp),%rsi
  4018c8:	64 48 33 34 25 28 00 	xor    %fs:0x28,%rsi
  4018cf:	00 00 
  4018d1:	75 05                	jne    4018d8 <scramble+0x599>
  4018d3:	48 83 c4 38          	add    $0x38,%rsp
  4018d7:	c3                   	retq   
  4018d8:	e8 03 f4 ff ff       	callq  400ce0 <__stack_chk_fail@plt>

00000000004018dd <getbuf>:
  4018dd:	48 83 ec 18          	sub    $0x18,%rsp
  4018e1:	48 89 e7             	mov    %rsp,%rdi
  4018e4:	e8 7e 02 00 00       	callq  401b67 <Gets>
  4018e9:	b8 01 00 00 00       	mov    $0x1,%eax
  4018ee:	48 83 c4 18          	add    $0x18,%rsp
  4018f2:	c3                   	retq   

00000000004018f3 <touch1>:
  4018f3:	48 83 ec 08          	sub    $0x8,%rsp
  4018f7:	c7 05 fb 2b 20 00 01 	movl   $0x1,0x202bfb(%rip)        # 6044fc <vlevel>
  4018fe:	00 00 00 
  401901:	bf 3b 32 40 00       	mov    $0x40323b,%edi
  401906:	e8 b5 f3 ff ff       	callq  400cc0 <puts@plt>
  40190b:	bf 01 00 00 00       	mov    $0x1,%edi
  401910:	e8 a7 04 00 00       	callq  401dbc <validate>
  401915:	bf 00 00 00 00       	mov    $0x0,%edi
  40191a:	e8 11 f5 ff ff       	callq  400e30 <exit@plt>

000000000040191f <touch2>:
  40191f:	48 83 ec 08          	sub    $0x8,%rsp
  401923:	89 fa                	mov    %edi,%edx
  401925:	c7 05 cd 2b 20 00 02 	movl   $0x2,0x202bcd(%rip)        # 6044fc <vlevel>
  40192c:	00 00 00 
  40192f:	39 3d cf 2b 20 00    	cmp    %edi,0x202bcf(%rip)        # 604504 <cookie>
  401935:	74 28                	je     40195f <touch2+0x40>
  401937:	be 88 32 40 00       	mov    $0x403288,%esi
  40193c:	bf 01 00 00 00       	mov    $0x1,%edi
  401941:	b8 00 00 00 00       	mov    $0x0,%eax
  401946:	e8 95 f4 ff ff       	callq  400de0 <__printf_chk@plt>
  40194b:	bf 02 00 00 00       	mov    $0x2,%edi
  401950:	e8 2c 05 00 00       	callq  401e81 <fail>
  401955:	bf 00 00 00 00       	mov    $0x0,%edi
  40195a:	e8 d1 f4 ff ff       	callq  400e30 <exit@plt>
  40195f:	be 60 32 40 00       	mov    $0x403260,%esi
  401964:	bf 01 00 00 00       	mov    $0x1,%edi
  401969:	b8 00 00 00 00       	mov    $0x0,%eax
  40196e:	e8 6d f4 ff ff       	callq  400de0 <__printf_chk@plt>
  401973:	bf 02 00 00 00       	mov    $0x2,%edi
  401978:	e8 3f 04 00 00       	callq  401dbc <validate>
  40197d:	eb d6                	jmp    401955 <touch2+0x36>

000000000040197f <hexmatch>:
  40197f:	41 54                	push   %r12
  401981:	55                   	push   %rbp
  401982:	53                   	push   %rbx
  401983:	48 83 c4 80          	add    $0xffffffffffffff80,%rsp
  401987:	89 fd                	mov    %edi,%ebp
  401989:	48 89 f3             	mov    %rsi,%rbx
  40198c:	64 48 8b 04 25 28 00 	mov    %fs:0x28,%rax
  401993:	00 00 
  401995:	48 89 44 24 78       	mov    %rax,0x78(%rsp)
  40199a:	31 c0                	xor    %eax,%eax
  40199c:	e8 ff f3 ff ff       	callq  400da0 <random@plt>
  4019a1:	48 89 c1             	mov    %rax,%rcx
  4019a4:	48 ba 0b d7 a3 70 3d 	movabs $0xa3d70a3d70a3d70b,%rdx
  4019ab:	0a d7 a3 
  4019ae:	48 f7 ea             	imul   %rdx
  4019b1:	48 01 ca             	add    %rcx,%rdx
  4019b4:	48 c1 fa 06          	sar    $0x6,%rdx
  4019b8:	48 89 c8             	mov    %rcx,%rax
  4019bb:	48 c1 f8 3f          	sar    $0x3f,%rax
  4019bf:	48 29 c2             	sub    %rax,%rdx
  4019c2:	48 8d 04 92          	lea    (%rdx,%rdx,4),%rax
  4019c6:	48 8d 14 80          	lea    (%rax,%rax,4),%rdx
  4019ca:	48 8d 04 95 00 00 00 	lea    0x0(,%rdx,4),%rax
  4019d1:	00 
  4019d2:	48 29 c1             	sub    %rax,%rcx
  4019d5:	4c 8d 24 0c          	lea    (%rsp,%rcx,1),%r12
  4019d9:	41 89 e8             	mov    %ebp,%r8d
  4019dc:	b9 58 32 40 00       	mov    $0x403258,%ecx
  4019e1:	48 c7 c2 ff ff ff ff 	mov    $0xffffffffffffffff,%rdx
  4019e8:	be 01 00 00 00       	mov    $0x1,%esi
  4019ed:	4c 89 e7             	mov    %r12,%rdi
  4019f0:	b8 00 00 00 00       	mov    $0x0,%eax
  4019f5:	e8 66 f4 ff ff       	callq  400e60 <__sprintf_chk@plt>
  4019fa:	ba 09 00 00 00       	mov    $0x9,%edx
  4019ff:	4c 89 e6             	mov    %r12,%rsi
  401a02:	48 89 df             	mov    %rbx,%rdi
  401a05:	e8 96 f2 ff ff       	callq  400ca0 <strncmp@plt>
  401a0a:	85 c0                	test   %eax,%eax
  401a0c:	0f 94 c0             	sete   %al
  401a0f:	48 8b 5c 24 78       	mov    0x78(%rsp),%rbx
  401a14:	64 48 33 1c 25 28 00 	xor    %fs:0x28,%rbx
  401a1b:	00 00 
  401a1d:	75 0c                	jne    401a2b <hexmatch+0xac>
  401a1f:	0f b6 c0             	movzbl %al,%eax
  401a22:	48 83 ec 80          	sub    $0xffffffffffffff80,%rsp
  401a26:	5b                   	pop    %rbx
  401a27:	5d                   	pop    %rbp
  401a28:	41 5c                	pop    %r12
  401a2a:	c3                   	retq   
  401a2b:	e8 b0 f2 ff ff       	callq  400ce0 <__stack_chk_fail@plt>

0000000000401a30 <touch3>:
  401a30:	53                   	push   %rbx
  401a31:	48 89 fb             	mov    %rdi,%rbx
  401a34:	c7 05 be 2a 20 00 03 	movl   $0x3,0x202abe(%rip)        # 6044fc <vlevel>
  401a3b:	00 00 00 
  401a3e:	48 89 fe             	mov    %rdi,%rsi
  401a41:	8b 3d bd 2a 20 00    	mov    0x202abd(%rip),%edi        # 604504 <cookie>
  401a47:	e8 33 ff ff ff       	callq  40197f <hexmatch>
  401a4c:	85 c0                	test   %eax,%eax
  401a4e:	74 2b                	je     401a7b <touch3+0x4b>
  401a50:	48 89 da             	mov    %rbx,%rdx
  401a53:	be b0 32 40 00       	mov    $0x4032b0,%esi
  401a58:	bf 01 00 00 00       	mov    $0x1,%edi
  401a5d:	b8 00 00 00 00       	mov    $0x0,%eax
  401a62:	e8 79 f3 ff ff       	callq  400de0 <__printf_chk@plt>
  401a67:	bf 03 00 00 00       	mov    $0x3,%edi
  401a6c:	e8 4b 03 00 00       	callq  401dbc <validate>
  401a71:	bf 00 00 00 00       	mov    $0x0,%edi
  401a76:	e8 b5 f3 ff ff       	callq  400e30 <exit@plt>
  401a7b:	48 89 da             	mov    %rbx,%rdx
  401a7e:	be d8 32 40 00       	mov    $0x4032d8,%esi
  401a83:	bf 01 00 00 00       	mov    $0x1,%edi
  401a88:	b8 00 00 00 00       	mov    $0x0,%eax
  401a8d:	e8 4e f3 ff ff       	callq  400de0 <__printf_chk@plt>
  401a92:	bf 03 00 00 00       	mov    $0x3,%edi
  401a97:	e8 e5 03 00 00       	callq  401e81 <fail>
  401a9c:	eb d3                	jmp    401a71 <touch3+0x41>

0000000000401a9e <test>:
  401a9e:	48 83 ec 08          	sub    $0x8,%rsp
  401aa2:	b8 00 00 00 00       	mov    $0x0,%eax
  401aa7:	e8 31 fe ff ff       	callq  4018dd <getbuf>
  401aac:	89 c2                	mov    %eax,%edx
  401aae:	be 00 33 40 00       	mov    $0x403300,%esi
  401ab3:	bf 01 00 00 00       	mov    $0x1,%edi
  401ab8:	b8 00 00 00 00       	mov    $0x0,%eax
  401abd:	e8 1e f3 ff ff       	callq  400de0 <__printf_chk@plt>
  401ac2:	48 83 c4 08          	add    $0x8,%rsp
  401ac6:	c3                   	retq   

0000000000401ac7 <save_char>:
  401ac7:	8b 05 57 36 20 00    	mov    0x203657(%rip),%eax        # 605124 <gets_cnt>
  401acd:	3d ff 03 00 00       	cmp    $0x3ff,%eax
  401ad2:	7f 49                	jg     401b1d <save_char+0x56>
  401ad4:	89 f9                	mov    %edi,%ecx
  401ad6:	c0 e9 04             	shr    $0x4,%cl
  401ad9:	8d 14 40             	lea    (%rax,%rax,2),%edx
  401adc:	83 e1 0f             	and    $0xf,%ecx
  401adf:	0f b6 b1 20 36 40 00 	movzbl 0x403620(%rcx),%esi
  401ae6:	48 63 ca             	movslq %edx,%rcx
  401ae9:	40 88 b1 20 45 60 00 	mov    %sil,0x604520(%rcx)
  401af0:	8d 4a 01             	lea    0x1(%rdx),%ecx
  401af3:	83 e7 0f             	and    $0xf,%edi
  401af6:	0f b6 b7 20 36 40 00 	movzbl 0x403620(%rdi),%esi
  401afd:	48 63 c9             	movslq %ecx,%rcx
  401b00:	40 88 b1 20 45 60 00 	mov    %sil,0x604520(%rcx)
  401b07:	83 c2 02             	add    $0x2,%edx
  401b0a:	48 63 d2             	movslq %edx,%rdx
  401b0d:	c6 82 20 45 60 00 20 	movb   $0x20,0x604520(%rdx)
  401b14:	83 c0 01             	add    $0x1,%eax
  401b17:	89 05 07 36 20 00    	mov    %eax,0x203607(%rip)        # 605124 <gets_cnt>
  401b1d:	f3 c3                	repz retq 

0000000000401b1f <save_term>:
  401b1f:	8b 05 ff 35 20 00    	mov    0x2035ff(%rip),%eax        # 605124 <gets_cnt>
  401b25:	8d 04 40             	lea    (%rax,%rax,2),%eax
  401b28:	48 98                	cltq   
  401b2a:	c6 80 20 45 60 00 00 	movb   $0x0,0x604520(%rax)
  401b31:	c3                   	retq   

0000000000401b32 <check_fail>:
  401b32:	48 83 ec 08          	sub    $0x8,%rsp
  401b36:	0f be 15 eb 35 20 00 	movsbl 0x2035eb(%rip),%edx        # 605128 <target_prefix>
  401b3d:	41 b8 20 45 60 00    	mov    $0x604520,%r8d
  401b43:	8b 0d af 29 20 00    	mov    0x2029af(%rip),%ecx        # 6044f8 <check_level>
  401b49:	be 23 33 40 00       	mov    $0x403323,%esi
  401b4e:	bf 01 00 00 00       	mov    $0x1,%edi
  401b53:	b8 00 00 00 00       	mov    $0x0,%eax
  401b58:	e8 83 f2 ff ff       	callq  400de0 <__printf_chk@plt>
  401b5d:	bf 01 00 00 00       	mov    $0x1,%edi
  401b62:	e8 c9 f2 ff ff       	callq  400e30 <exit@plt>

0000000000401b67 <Gets>:
  401b67:	41 54                	push   %r12
  401b69:	55                   	push   %rbp
  401b6a:	53                   	push   %rbx
  401b6b:	49 89 fc             	mov    %rdi,%r12
  401b6e:	c7 05 ac 35 20 00 00 	movl   $0x0,0x2035ac(%rip)        # 605124 <gets_cnt>
  401b75:	00 00 00 
  401b78:	48 89 fb             	mov    %rdi,%rbx
  401b7b:	eb 11                	jmp    401b8e <Gets+0x27>
  401b7d:	48 8d 6b 01          	lea    0x1(%rbx),%rbp
  401b81:	88 03                	mov    %al,(%rbx)
  401b83:	0f b6 f8             	movzbl %al,%edi
  401b86:	e8 3c ff ff ff       	callq  401ac7 <save_char>
  401b8b:	48 89 eb             	mov    %rbp,%rbx
  401b8e:	48 8b 3d 5b 29 20 00 	mov    0x20295b(%rip),%rdi        # 6044f0 <infile>
  401b95:	e8 16 f2 ff ff       	callq  400db0 <_IO_getc@plt>
  401b9a:	83 f8 ff             	cmp    $0xffffffff,%eax
  401b9d:	74 05                	je     401ba4 <Gets+0x3d>
  401b9f:	83 f8 0a             	cmp    $0xa,%eax
  401ba2:	75 d9                	jne    401b7d <Gets+0x16>
  401ba4:	c6 03 00             	movb   $0x0,(%rbx)
  401ba7:	b8 00 00 00 00       	mov    $0x0,%eax
  401bac:	e8 6e ff ff ff       	callq  401b1f <save_term>
  401bb1:	4c 89 e0             	mov    %r12,%rax
  401bb4:	5b                   	pop    %rbx
  401bb5:	5d                   	pop    %rbp
  401bb6:	41 5c                	pop    %r12
  401bb8:	c3                   	retq   

0000000000401bb9 <notify_server>:
  401bb9:	55                   	push   %rbp
  401bba:	53                   	push   %rbx
  401bbb:	48 81 ec 18 40 00 00 	sub    $0x4018,%rsp
  401bc2:	64 48 8b 04 25 28 00 	mov    %fs:0x28,%rax
  401bc9:	00 00 
  401bcb:	48 89 84 24 08 40 00 	mov    %rax,0x4008(%rsp)
  401bd2:	00 
  401bd3:	31 c0                	xor    %eax,%eax
  401bd5:	83 3d 2c 29 20 00 00 	cmpl   $0x0,0x20292c(%rip)        # 604508 <is_checker>
  401bdc:	0f 85 c9 00 00 00    	jne    401cab <notify_server+0xf2>
  401be2:	89 fb                	mov    %edi,%ebx
  401be4:	8b 05 3a 35 20 00    	mov    0x20353a(%rip),%eax        # 605124 <gets_cnt>
  401bea:	83 c0 64             	add    $0x64,%eax
  401bed:	3d 00 20 00 00       	cmp    $0x2000,%eax
  401bf2:	0f 8f d4 00 00 00    	jg     401ccc <notify_server+0x113>
  401bf8:	0f be 05 29 35 20 00 	movsbl 0x203529(%rip),%eax        # 605128 <target_prefix>
  401bff:	83 3d 82 28 20 00 00 	cmpl   $0x0,0x202882(%rip)        # 604488 <notify>
  401c06:	0f 84 de 00 00 00    	je     401cea <notify_server+0x131>
  401c0c:	8b 15 ee 28 20 00    	mov    0x2028ee(%rip),%edx        # 604500 <authkey>
  401c12:	85 db                	test   %ebx,%ebx
  401c14:	0f 84 da 00 00 00    	je     401cf4 <notify_server+0x13b>
  401c1a:	bd 39 33 40 00       	mov    $0x403339,%ebp
  401c1f:	68 20 45 60 00       	pushq  $0x604520
  401c24:	56                   	push   %rsi
  401c25:	50                   	push   %rax
  401c26:	52                   	push   %rdx
  401c27:	49 89 e9             	mov    %rbp,%r9
  401c2a:	44 8b 05 17 25 20 00 	mov    0x202517(%rip),%r8d        # 604148 <target_id>
  401c31:	b9 43 33 40 00       	mov    $0x403343,%ecx
  401c36:	ba 00 20 00 00       	mov    $0x2000,%edx
  401c3b:	be 01 00 00 00       	mov    $0x1,%esi
  401c40:	48 8d 7c 24 20       	lea    0x20(%rsp),%rdi
  401c45:	b8 00 00 00 00       	mov    $0x0,%eax
  401c4a:	e8 11 f2 ff ff       	callq  400e60 <__sprintf_chk@plt>
  401c4f:	48 83 c4 20          	add    $0x20,%rsp
  401c53:	83 3d 2e 28 20 00 00 	cmpl   $0x0,0x20282e(%rip)        # 604488 <notify>
  401c5a:	0f 84 d3 00 00 00    	je     401d33 <notify_server+0x17a>
  401c60:	85 db                	test   %ebx,%ebx
  401c62:	0f 84 bc 00 00 00    	je     401d24 <notify_server+0x16b>
  401c68:	4c 8d 8c 24 00 20 00 	lea    0x2000(%rsp),%r9
  401c6f:	00 
  401c70:	41 b8 00 00 00 00    	mov    $0x0,%r8d
  401c76:	48 89 e1             	mov    %rsp,%rcx
  401c79:	48 8b 15 d0 24 20 00 	mov    0x2024d0(%rip),%rdx        # 604150 <lab>
  401c80:	48 8b 35 d1 24 20 00 	mov    0x2024d1(%rip),%rsi        # 604158 <course>
  401c87:	48 8b 3d b2 24 20 00 	mov    0x2024b2(%rip),%rdi        # 604140 <user_id>
  401c8e:	e8 31 11 00 00       	callq  402dc4 <driver_post>
  401c93:	85 c0                	test   %eax,%eax
  401c95:	78 67                	js     401cfe <notify_server+0x145>
  401c97:	bf 88 34 40 00       	mov    $0x403488,%edi
  401c9c:	e8 1f f0 ff ff       	callq  400cc0 <puts@plt>
  401ca1:	bf 6b 33 40 00       	mov    $0x40336b,%edi
  401ca6:	e8 15 f0 ff ff       	callq  400cc0 <puts@plt>
  401cab:	48 8b 84 24 08 40 00 	mov    0x4008(%rsp),%rax
  401cb2:	00 
  401cb3:	64 48 33 04 25 28 00 	xor    %fs:0x28,%rax
  401cba:	00 00 
  401cbc:	0f 85 f5 00 00 00    	jne    401db7 <notify_server+0x1fe>
  401cc2:	48 81 c4 18 40 00 00 	add    $0x4018,%rsp
  401cc9:	5b                   	pop    %rbx
  401cca:	5d                   	pop    %rbp
  401ccb:	c3                   	retq   
  401ccc:	be 58 34 40 00       	mov    $0x403458,%esi
  401cd1:	bf 01 00 00 00       	mov    $0x1,%edi
  401cd6:	b8 00 00 00 00       	mov    $0x0,%eax
  401cdb:	e8 00 f1 ff ff       	callq  400de0 <__printf_chk@plt>
  401ce0:	bf 01 00 00 00       	mov    $0x1,%edi
  401ce5:	e8 46 f1 ff ff       	callq  400e30 <exit@plt>
  401cea:	ba ff ff ff ff       	mov    $0xffffffff,%edx
  401cef:	e9 1e ff ff ff       	jmpq   401c12 <notify_server+0x59>
  401cf4:	bd 3e 33 40 00       	mov    $0x40333e,%ebp
  401cf9:	e9 21 ff ff ff       	jmpq   401c1f <notify_server+0x66>
  401cfe:	48 8d 94 24 00 20 00 	lea    0x2000(%rsp),%rdx
  401d05:	00 
  401d06:	be 5f 33 40 00       	mov    $0x40335f,%esi
  401d0b:	bf 01 00 00 00       	mov    $0x1,%edi
  401d10:	b8 00 00 00 00       	mov    $0x0,%eax
  401d15:	e8 c6 f0 ff ff       	callq  400de0 <__printf_chk@plt>
  401d1a:	bf 01 00 00 00       	mov    $0x1,%edi
  401d1f:	e8 0c f1 ff ff       	callq  400e30 <exit@plt>
  401d24:	bf 75 33 40 00       	mov    $0x403375,%edi
  401d29:	e8 92 ef ff ff       	callq  400cc0 <puts@plt>
  401d2e:	e9 78 ff ff ff       	jmpq   401cab <notify_server+0xf2>
  401d33:	48 89 ea             	mov    %rbp,%rdx
  401d36:	be c0 34 40 00       	mov    $0x4034c0,%esi
  401d3b:	bf 01 00 00 00       	mov    $0x1,%edi
  401d40:	b8 00 00 00 00       	mov    $0x0,%eax
  401d45:	e8 96 f0 ff ff       	callq  400de0 <__printf_chk@plt>
  401d4a:	48 8b 15 ef 23 20 00 	mov    0x2023ef(%rip),%rdx        # 604140 <user_id>
  401d51:	be 7c 33 40 00       	mov    $0x40337c,%esi
  401d56:	bf 01 00 00 00       	mov    $0x1,%edi
  401d5b:	b8 00 00 00 00       	mov    $0x0,%eax
  401d60:	e8 7b f0 ff ff       	callq  400de0 <__printf_chk@plt>
  401d65:	48 8b 15 ec 23 20 00 	mov    0x2023ec(%rip),%rdx        # 604158 <course>
  401d6c:	be 89 33 40 00       	mov    $0x403389,%esi
  401d71:	bf 01 00 00 00       	mov    $0x1,%edi
  401d76:	b8 00 00 00 00       	mov    $0x0,%eax
  401d7b:	e8 60 f0 ff ff       	callq  400de0 <__printf_chk@plt>
  401d80:	48 8b 15 c9 23 20 00 	mov    0x2023c9(%rip),%rdx        # 604150 <lab>
  401d87:	be 95 33 40 00       	mov    $0x403395,%esi
  401d8c:	bf 01 00 00 00       	mov    $0x1,%edi
  401d91:	b8 00 00 00 00       	mov    $0x0,%eax
  401d96:	e8 45 f0 ff ff       	callq  400de0 <__printf_chk@plt>
  401d9b:	48 89 e2             	mov    %rsp,%rdx
  401d9e:	be 9e 33 40 00       	mov    $0x40339e,%esi
  401da3:	bf 01 00 00 00       	mov    $0x1,%edi
  401da8:	b8 00 00 00 00       	mov    $0x0,%eax
  401dad:	e8 2e f0 ff ff       	callq  400de0 <__printf_chk@plt>
  401db2:	e9 f4 fe ff ff       	jmpq   401cab <notify_server+0xf2>
  401db7:	e8 24 ef ff ff       	callq  400ce0 <__stack_chk_fail@plt>

0000000000401dbc <validate>:
  401dbc:	53                   	push   %rbx
  401dbd:	89 fb                	mov    %edi,%ebx
  401dbf:	83 3d 42 27 20 00 00 	cmpl   $0x0,0x202742(%rip)        # 604508 <is_checker>
  401dc6:	74 6b                	je     401e33 <validate+0x77>
  401dc8:	39 3d 2e 27 20 00    	cmp    %edi,0x20272e(%rip)        # 6044fc <vlevel>
  401dce:	75 2f                	jne    401dff <validate+0x43>
  401dd0:	8b 15 22 27 20 00    	mov    0x202722(%rip),%edx        # 6044f8 <check_level>
  401dd6:	39 fa                	cmp    %edi,%edx
  401dd8:	75 39                	jne    401e13 <validate+0x57>
  401dda:	0f be 15 47 33 20 00 	movsbl 0x203347(%rip),%edx        # 605128 <target_prefix>
  401de1:	41 b8 20 45 60 00    	mov    $0x604520,%r8d
  401de7:	89 f9                	mov    %edi,%ecx
  401de9:	be c8 33 40 00       	mov    $0x4033c8,%esi
  401dee:	bf 01 00 00 00       	mov    $0x1,%edi
  401df3:	b8 00 00 00 00       	mov    $0x0,%eax
  401df8:	e8 e3 ef ff ff       	callq  400de0 <__printf_chk@plt>
  401dfd:	5b                   	pop    %rbx
  401dfe:	c3                   	retq   
  401dff:	bf aa 33 40 00       	mov    $0x4033aa,%edi
  401e04:	e8 b7 ee ff ff       	callq  400cc0 <puts@plt>
  401e09:	b8 00 00 00 00       	mov    $0x0,%eax
  401e0e:	e8 1f fd ff ff       	callq  401b32 <check_fail>
  401e13:	89 f9                	mov    %edi,%ecx
  401e15:	be e8 34 40 00       	mov    $0x4034e8,%esi
  401e1a:	bf 01 00 00 00       	mov    $0x1,%edi
  401e1f:	b8 00 00 00 00       	mov    $0x0,%eax
  401e24:	e8 b7 ef ff ff       	callq  400de0 <__printf_chk@plt>
  401e29:	b8 00 00 00 00       	mov    $0x0,%eax
  401e2e:	e8 ff fc ff ff       	callq  401b32 <check_fail>
  401e33:	39 3d c3 26 20 00    	cmp    %edi,0x2026c3(%rip)        # 6044fc <vlevel>
  401e39:	74 18                	je     401e53 <validate+0x97>
  401e3b:	bf aa 33 40 00       	mov    $0x4033aa,%edi
  401e40:	e8 7b ee ff ff       	callq  400cc0 <puts@plt>
  401e45:	89 de                	mov    %ebx,%esi
  401e47:	bf 00 00 00 00       	mov    $0x0,%edi
  401e4c:	e8 68 fd ff ff       	callq  401bb9 <notify_server>
  401e51:	eb aa                	jmp    401dfd <validate+0x41>
  401e53:	0f be 0d ce 32 20 00 	movsbl 0x2032ce(%rip),%ecx        # 605128 <target_prefix>
  401e5a:	89 fa                	mov    %edi,%edx
  401e5c:	be 10 35 40 00       	mov    $0x403510,%esi
  401e61:	bf 01 00 00 00       	mov    $0x1,%edi
  401e66:	b8 00 00 00 00       	mov    $0x0,%eax
  401e6b:	e8 70 ef ff ff       	callq  400de0 <__printf_chk@plt>
  401e70:	89 de                	mov    %ebx,%esi
  401e72:	bf 01 00 00 00       	mov    $0x1,%edi
  401e77:	e8 3d fd ff ff       	callq  401bb9 <notify_server>
  401e7c:	e9 7c ff ff ff       	jmpq   401dfd <validate+0x41>

0000000000401e81 <fail>:
  401e81:	48 83 ec 08          	sub    $0x8,%rsp
  401e85:	83 3d 7c 26 20 00 00 	cmpl   $0x0,0x20267c(%rip)        # 604508 <is_checker>
  401e8c:	75 11                	jne    401e9f <fail+0x1e>
  401e8e:	89 fe                	mov    %edi,%esi
  401e90:	bf 00 00 00 00       	mov    $0x0,%edi
  401e95:	e8 1f fd ff ff       	callq  401bb9 <notify_server>
  401e9a:	48 83 c4 08          	add    $0x8,%rsp
  401e9e:	c3                   	retq   
  401e9f:	b8 00 00 00 00       	mov    $0x0,%eax
  401ea4:	e8 89 fc ff ff       	callq  401b32 <check_fail>

0000000000401ea9 <bushandler>:
  401ea9:	48 83 ec 08          	sub    $0x8,%rsp
  401ead:	83 3d 54 26 20 00 00 	cmpl   $0x0,0x202654(%rip)        # 604508 <is_checker>
  401eb4:	74 14                	je     401eca <bushandler+0x21>
  401eb6:	bf dd 33 40 00       	mov    $0x4033dd,%edi
  401ebb:	e8 00 ee ff ff       	callq  400cc0 <puts@plt>
  401ec0:	b8 00 00 00 00       	mov    $0x0,%eax
  401ec5:	e8 68 fc ff ff       	callq  401b32 <check_fail>
  401eca:	bf 48 35 40 00       	mov    $0x403548,%edi
  401ecf:	e8 ec ed ff ff       	callq  400cc0 <puts@plt>
  401ed4:	bf e7 33 40 00       	mov    $0x4033e7,%edi
  401ed9:	e8 e2 ed ff ff       	callq  400cc0 <puts@plt>
  401ede:	be 00 00 00 00       	mov    $0x0,%esi
  401ee3:	bf 00 00 00 00       	mov    $0x0,%edi
  401ee8:	e8 cc fc ff ff       	callq  401bb9 <notify_server>
  401eed:	bf 01 00 00 00       	mov    $0x1,%edi
  401ef2:	e8 39 ef ff ff       	callq  400e30 <exit@plt>

0000000000401ef7 <seghandler>:
  401ef7:	48 83 ec 08          	sub    $0x8,%rsp
  401efb:	83 3d 06 26 20 00 00 	cmpl   $0x0,0x202606(%rip)        # 604508 <is_checker>
  401f02:	74 14                	je     401f18 <seghandler+0x21>
  401f04:	bf fd 33 40 00       	mov    $0x4033fd,%edi
  401f09:	e8 b2 ed ff ff       	callq  400cc0 <puts@plt>
  401f0e:	b8 00 00 00 00       	mov    $0x0,%eax
  401f13:	e8 1a fc ff ff       	callq  401b32 <check_fail>
  401f18:	bf 68 35 40 00       	mov    $0x403568,%edi
  401f1d:	e8 9e ed ff ff       	callq  400cc0 <puts@plt>
  401f22:	bf e7 33 40 00       	mov    $0x4033e7,%edi
  401f27:	e8 94 ed ff ff       	callq  400cc0 <puts@plt>
  401f2c:	be 00 00 00 00       	mov    $0x0,%esi
  401f31:	bf 00 00 00 00       	mov    $0x0,%edi
  401f36:	e8 7e fc ff ff       	callq  401bb9 <notify_server>
  401f3b:	bf 01 00 00 00       	mov    $0x1,%edi
  401f40:	e8 eb ee ff ff       	callq  400e30 <exit@plt>

0000000000401f45 <illegalhandler>:
  401f45:	48 83 ec 08          	sub    $0x8,%rsp
  401f49:	83 3d b8 25 20 00 00 	cmpl   $0x0,0x2025b8(%rip)        # 604508 <is_checker>
  401f50:	74 14                	je     401f66 <illegalhandler+0x21>
  401f52:	bf 10 34 40 00       	mov    $0x403410,%edi
  401f57:	e8 64 ed ff ff       	callq  400cc0 <puts@plt>
  401f5c:	b8 00 00 00 00       	mov    $0x0,%eax
  401f61:	e8 cc fb ff ff       	callq  401b32 <check_fail>
  401f66:	bf 90 35 40 00       	mov    $0x403590,%edi
  401f6b:	e8 50 ed ff ff       	callq  400cc0 <puts@plt>
  401f70:	bf e7 33 40 00       	mov    $0x4033e7,%edi
  401f75:	e8 46 ed ff ff       	callq  400cc0 <puts@plt>
  401f7a:	be 00 00 00 00       	mov    $0x0,%esi
  401f7f:	bf 00 00 00 00       	mov    $0x0,%edi
  401f84:	e8 30 fc ff ff       	callq  401bb9 <notify_server>
  401f89:	bf 01 00 00 00       	mov    $0x1,%edi
  401f8e:	e8 9d ee ff ff       	callq  400e30 <exit@plt>

0000000000401f93 <sigalrmhandler>:
  401f93:	48 83 ec 08          	sub    $0x8,%rsp
  401f97:	83 3d 6a 25 20 00 00 	cmpl   $0x0,0x20256a(%rip)        # 604508 <is_checker>
  401f9e:	74 14                	je     401fb4 <sigalrmhandler+0x21>
  401fa0:	bf 24 34 40 00       	mov    $0x403424,%edi
  401fa5:	e8 16 ed ff ff       	callq  400cc0 <puts@plt>
  401faa:	b8 00 00 00 00       	mov    $0x0,%eax
  401faf:	e8 7e fb ff ff       	callq  401b32 <check_fail>
  401fb4:	ba 05 00 00 00       	mov    $0x5,%edx
  401fb9:	be c0 35 40 00       	mov    $0x4035c0,%esi
  401fbe:	bf 01 00 00 00       	mov    $0x1,%edi
  401fc3:	b8 00 00 00 00       	mov    $0x0,%eax
  401fc8:	e8 13 ee ff ff       	callq  400de0 <__printf_chk@plt>
  401fcd:	be 00 00 00 00       	mov    $0x0,%esi
  401fd2:	bf 00 00 00 00       	mov    $0x0,%edi
  401fd7:	e8 dd fb ff ff       	callq  401bb9 <notify_server>
  401fdc:	bf 01 00 00 00       	mov    $0x1,%edi
  401fe1:	e8 4a ee ff ff       	callq  400e30 <exit@plt>

0000000000401fe6 <launch>:
  401fe6:	55                   	push   %rbp
  401fe7:	48 89 e5             	mov    %rsp,%rbp
  401fea:	48 83 ec 10          	sub    $0x10,%rsp
  401fee:	48 89 fa             	mov    %rdi,%rdx
  401ff1:	64 48 8b 04 25 28 00 	mov    %fs:0x28,%rax
  401ff8:	00 00 
  401ffa:	48 89 45 f8          	mov    %rax,-0x8(%rbp)
  401ffe:	31 c0                	xor    %eax,%eax
  402000:	48 8d 47 1e          	lea    0x1e(%rdi),%rax
  402004:	48 83 e0 f0          	and    $0xfffffffffffffff0,%rax
  402008:	48 29 c4             	sub    %rax,%rsp
  40200b:	48 8d 7c 24 0f       	lea    0xf(%rsp),%rdi
  402010:	48 83 e7 f0          	and    $0xfffffffffffffff0,%rdi
  402014:	be f4 00 00 00       	mov    $0xf4,%esi
  402019:	e8 e2 ec ff ff       	callq  400d00 <memset@plt>
  40201e:	48 8b 05 7b 24 20 00 	mov    0x20247b(%rip),%rax        # 6044a0 <stdin@@GLIBC_2.2.5>
  402025:	48 39 05 c4 24 20 00 	cmp    %rax,0x2024c4(%rip)        # 6044f0 <infile>
  40202c:	74 38                	je     402066 <launch+0x80>
  40202e:	c7 05 c4 24 20 00 00 	movl   $0x0,0x2024c4(%rip)        # 6044fc <vlevel>
  402035:	00 00 00 
  402038:	b8 00 00 00 00       	mov    $0x0,%eax
  40203d:	e8 5c fa ff ff       	callq  401a9e <test>
  402042:	83 3d bf 24 20 00 00 	cmpl   $0x0,0x2024bf(%rip)        # 604508 <is_checker>
  402049:	75 31                	jne    40207c <launch+0x96>
  40204b:	bf 44 34 40 00       	mov    $0x403444,%edi
  402050:	e8 6b ec ff ff       	callq  400cc0 <puts@plt>
  402055:	48 8b 45 f8          	mov    -0x8(%rbp),%rax
  402059:	64 48 33 04 25 28 00 	xor    %fs:0x28,%rax
  402060:	00 00 
  402062:	75 2c                	jne    402090 <launch+0xaa>
  402064:	c9                   	leaveq 
  402065:	c3                   	retq   
  402066:	be 2c 34 40 00       	mov    $0x40342c,%esi
  40206b:	bf 01 00 00 00       	mov    $0x1,%edi
  402070:	b8 00 00 00 00       	mov    $0x0,%eax
  402075:	e8 66 ed ff ff       	callq  400de0 <__printf_chk@plt>
  40207a:	eb b2                	jmp    40202e <launch+0x48>
  40207c:	bf 39 34 40 00       	mov    $0x403439,%edi
  402081:	e8 3a ec ff ff       	callq  400cc0 <puts@plt>
  402086:	b8 00 00 00 00       	mov    $0x0,%eax
  40208b:	e8 a2 fa ff ff       	callq  401b32 <check_fail>
  402090:	e8 4b ec ff ff       	callq  400ce0 <__stack_chk_fail@plt>

0000000000402095 <stable_launch>:
  402095:	53                   	push   %rbx
  402096:	48 89 3d 4b 24 20 00 	mov    %rdi,0x20244b(%rip)        # 6044e8 <global_offset>
  40209d:	41 b9 00 00 00 00    	mov    $0x0,%r9d
  4020a3:	41 b8 00 00 00 00    	mov    $0x0,%r8d
  4020a9:	b9 32 01 00 00       	mov    $0x132,%ecx
  4020ae:	ba 07 00 00 00       	mov    $0x7,%edx
  4020b3:	be 00 00 10 00       	mov    $0x100000,%esi
  4020b8:	bf 00 60 58 55       	mov    $0x55586000,%edi
  4020bd:	e8 2e ec ff ff       	callq  400cf0 <mmap@plt>
  4020c2:	48 89 c3             	mov    %rax,%rbx
  4020c5:	48 3d 00 60 58 55    	cmp    $0x55586000,%rax
  4020cb:	75 43                	jne    402110 <stable_launch+0x7b>
  4020cd:	48 8d 90 f8 ff 0f 00 	lea    0xffff8(%rax),%rdx
  4020d4:	48 89 15 55 30 20 00 	mov    %rdx,0x203055(%rip)        # 605130 <stack_top>
  4020db:	48 89 e0             	mov    %rsp,%rax
  4020de:	48 89 d4             	mov    %rdx,%rsp
  4020e1:	48 89 c2             	mov    %rax,%rdx
  4020e4:	48 89 15 f5 23 20 00 	mov    %rdx,0x2023f5(%rip)        # 6044e0 <global_save_stack>
  4020eb:	48 8b 3d f6 23 20 00 	mov    0x2023f6(%rip),%rdi        # 6044e8 <global_offset>
  4020f2:	e8 ef fe ff ff       	callq  401fe6 <launch>
  4020f7:	48 8b 05 e2 23 20 00 	mov    0x2023e2(%rip),%rax        # 6044e0 <global_save_stack>
  4020fe:	48 89 c4             	mov    %rax,%rsp
  402101:	be 00 00 10 00       	mov    $0x100000,%esi
  402106:	48 89 df             	mov    %rbx,%rdi
  402109:	e8 c2 ec ff ff       	callq  400dd0 <munmap@plt>
  40210e:	5b                   	pop    %rbx
  40210f:	c3                   	retq   
  402110:	be 00 00 10 00       	mov    $0x100000,%esi
  402115:	48 89 c7             	mov    %rax,%rdi
  402118:	e8 b3 ec ff ff       	callq  400dd0 <munmap@plt>
  40211d:	b9 00 60 58 55       	mov    $0x55586000,%ecx
  402122:	ba f8 35 40 00       	mov    $0x4035f8,%edx
  402127:	be 01 00 00 00       	mov    $0x1,%esi
  40212c:	48 8b 3d 8d 23 20 00 	mov    0x20238d(%rip),%rdi        # 6044c0 <stderr@@GLIBC_2.2.5>
  402133:	b8 00 00 00 00       	mov    $0x0,%eax
  402138:	e8 13 ed ff ff       	callq  400e50 <__fprintf_chk@plt>
  40213d:	bf 01 00 00 00       	mov    $0x1,%edi
  402142:	e8 e9 ec ff ff       	callq  400e30 <exit@plt>

0000000000402147 <rio_readinitb>:
  402147:	89 37                	mov    %esi,(%rdi)
  402149:	c7 47 04 00 00 00 00 	movl   $0x0,0x4(%rdi)
  402150:	48 8d 47 10          	lea    0x10(%rdi),%rax
  402154:	48 89 47 08          	mov    %rax,0x8(%rdi)
  402158:	c3                   	retq   

0000000000402159 <sigalrm_handler>:
  402159:	48 83 ec 08          	sub    $0x8,%rsp
  40215d:	b9 00 00 00 00       	mov    $0x0,%ecx
  402162:	ba 30 36 40 00       	mov    $0x403630,%edx
  402167:	be 01 00 00 00       	mov    $0x1,%esi
  40216c:	48 8b 3d 4d 23 20 00 	mov    0x20234d(%rip),%rdi        # 6044c0 <stderr@@GLIBC_2.2.5>
  402173:	b8 00 00 00 00       	mov    $0x0,%eax
  402178:	e8 d3 ec ff ff       	callq  400e50 <__fprintf_chk@plt>
  40217d:	bf 01 00 00 00       	mov    $0x1,%edi
  402182:	e8 a9 ec ff ff       	callq  400e30 <exit@plt>

0000000000402187 <rio_writen>:
  402187:	41 55                	push   %r13
  402189:	41 54                	push   %r12
  40218b:	55                   	push   %rbp
  40218c:	53                   	push   %rbx
  40218d:	48 83 ec 08          	sub    $0x8,%rsp
  402191:	41 89 fc             	mov    %edi,%r12d
  402194:	48 89 f5             	mov    %rsi,%rbp
  402197:	49 89 d5             	mov    %rdx,%r13
  40219a:	48 89 d3             	mov    %rdx,%rbx
  40219d:	eb 06                	jmp    4021a5 <rio_writen+0x1e>
  40219f:	48 29 c3             	sub    %rax,%rbx
  4021a2:	48 01 c5             	add    %rax,%rbp
  4021a5:	48 85 db             	test   %rbx,%rbx
  4021a8:	74 24                	je     4021ce <rio_writen+0x47>
  4021aa:	48 89 da             	mov    %rbx,%rdx
  4021ad:	48 89 ee             	mov    %rbp,%rsi
  4021b0:	44 89 e7             	mov    %r12d,%edi
  4021b3:	e8 18 eb ff ff       	callq  400cd0 <write@plt>
  4021b8:	48 85 c0             	test   %rax,%rax
  4021bb:	7f e2                	jg     40219f <rio_writen+0x18>
  4021bd:	e8 be ea ff ff       	callq  400c80 <__errno_location@plt>
  4021c2:	83 38 04             	cmpl   $0x4,(%rax)
  4021c5:	75 15                	jne    4021dc <rio_writen+0x55>
  4021c7:	b8 00 00 00 00       	mov    $0x0,%eax
  4021cc:	eb d1                	jmp    40219f <rio_writen+0x18>
  4021ce:	4c 89 e8             	mov    %r13,%rax
  4021d1:	48 83 c4 08          	add    $0x8,%rsp
  4021d5:	5b                   	pop    %rbx
  4021d6:	5d                   	pop    %rbp
  4021d7:	41 5c                	pop    %r12
  4021d9:	41 5d                	pop    %r13
  4021db:	c3                   	retq   
  4021dc:	48 c7 c0 ff ff ff ff 	mov    $0xffffffffffffffff,%rax
  4021e3:	eb ec                	jmp    4021d1 <rio_writen+0x4a>

00000000004021e5 <rio_read>:
  4021e5:	41 55                	push   %r13
  4021e7:	41 54                	push   %r12
  4021e9:	55                   	push   %rbp
  4021ea:	53                   	push   %rbx
  4021eb:	48 83 ec 08          	sub    $0x8,%rsp
  4021ef:	48 89 fb             	mov    %rdi,%rbx
  4021f2:	49 89 f5             	mov    %rsi,%r13
  4021f5:	49 89 d4             	mov    %rdx,%r12
  4021f8:	eb 0a                	jmp    402204 <rio_read+0x1f>
  4021fa:	e8 81 ea ff ff       	callq  400c80 <__errno_location@plt>
  4021ff:	83 38 04             	cmpl   $0x4,(%rax)
  402202:	75 5c                	jne    402260 <rio_read+0x7b>
  402204:	8b 6b 04             	mov    0x4(%rbx),%ebp
  402207:	85 ed                	test   %ebp,%ebp
  402209:	7f 24                	jg     40222f <rio_read+0x4a>
  40220b:	48 8d 6b 10          	lea    0x10(%rbx),%rbp
  40220f:	8b 3b                	mov    (%rbx),%edi
  402211:	ba 00 20 00 00       	mov    $0x2000,%edx
  402216:	48 89 ee             	mov    %rbp,%rsi
  402219:	e8 12 eb ff ff       	callq  400d30 <read@plt>
  40221e:	89 43 04             	mov    %eax,0x4(%rbx)
  402221:	85 c0                	test   %eax,%eax
  402223:	78 d5                	js     4021fa <rio_read+0x15>
  402225:	85 c0                	test   %eax,%eax
  402227:	74 40                	je     402269 <rio_read+0x84>
  402229:	48 89 6b 08          	mov    %rbp,0x8(%rbx)
  40222d:	eb d5                	jmp    402204 <rio_read+0x1f>
  40222f:	89 e8                	mov    %ebp,%eax
  402231:	4c 39 e0             	cmp    %r12,%rax
  402234:	72 03                	jb     402239 <rio_read+0x54>
  402236:	44 89 e5             	mov    %r12d,%ebp
  402239:	4c 63 e5             	movslq %ebp,%r12
  40223c:	48 8b 73 08          	mov    0x8(%rbx),%rsi
  402240:	4c 89 e2             	mov    %r12,%rdx
  402243:	4c 89 ef             	mov    %r13,%rdi
  402246:	e8 35 eb ff ff       	callq  400d80 <memcpy@plt>
  40224b:	4c 01 63 08          	add    %r12,0x8(%rbx)
  40224f:	29 6b 04             	sub    %ebp,0x4(%rbx)
  402252:	4c 89 e0             	mov    %r12,%rax
  402255:	48 83 c4 08          	add    $0x8,%rsp
  402259:	5b                   	pop    %rbx
  40225a:	5d                   	pop    %rbp
  40225b:	41 5c                	pop    %r12
  40225d:	41 5d                	pop    %r13
  40225f:	c3                   	retq   
  402260:	48 c7 c0 ff ff ff ff 	mov    $0xffffffffffffffff,%rax
  402267:	eb ec                	jmp    402255 <rio_read+0x70>
  402269:	b8 00 00 00 00       	mov    $0x0,%eax
  40226e:	eb e5                	jmp    402255 <rio_read+0x70>

0000000000402270 <rio_readlineb>:
  402270:	41 55                	push   %r13
  402272:	41 54                	push   %r12
  402274:	55                   	push   %rbp
  402275:	53                   	push   %rbx
  402276:	48 83 ec 18          	sub    $0x18,%rsp
  40227a:	49 89 fd             	mov    %rdi,%r13
  40227d:	48 89 f5             	mov    %rsi,%rbp
  402280:	49 89 d4             	mov    %rdx,%r12
  402283:	64 48 8b 04 25 28 00 	mov    %fs:0x28,%rax
  40228a:	00 00 
  40228c:	48 89 44 24 08       	mov    %rax,0x8(%rsp)
  402291:	31 c0                	xor    %eax,%eax
  402293:	bb 01 00 00 00       	mov    $0x1,%ebx
  402298:	4c 39 e3             	cmp    %r12,%rbx
  40229b:	73 47                	jae    4022e4 <rio_readlineb+0x74>
  40229d:	ba 01 00 00 00       	mov    $0x1,%edx
  4022a2:	48 8d 74 24 07       	lea    0x7(%rsp),%rsi
  4022a7:	4c 89 ef             	mov    %r13,%rdi
  4022aa:	e8 36 ff ff ff       	callq  4021e5 <rio_read>
  4022af:	83 f8 01             	cmp    $0x1,%eax
  4022b2:	75 1c                	jne    4022d0 <rio_readlineb+0x60>
  4022b4:	48 8d 45 01          	lea    0x1(%rbp),%rax
  4022b8:	0f b6 54 24 07       	movzbl 0x7(%rsp),%edx
  4022bd:	88 55 00             	mov    %dl,0x0(%rbp)
  4022c0:	80 7c 24 07 0a       	cmpb   $0xa,0x7(%rsp)
  4022c5:	74 1a                	je     4022e1 <rio_readlineb+0x71>
  4022c7:	48 83 c3 01          	add    $0x1,%rbx
  4022cb:	48 89 c5             	mov    %rax,%rbp
  4022ce:	eb c8                	jmp    402298 <rio_readlineb+0x28>
  4022d0:	85 c0                	test   %eax,%eax
  4022d2:	75 32                	jne    402306 <rio_readlineb+0x96>
  4022d4:	48 83 fb 01          	cmp    $0x1,%rbx
  4022d8:	75 0a                	jne    4022e4 <rio_readlineb+0x74>
  4022da:	b8 00 00 00 00       	mov    $0x0,%eax
  4022df:	eb 0a                	jmp    4022eb <rio_readlineb+0x7b>
  4022e1:	48 89 c5             	mov    %rax,%rbp
  4022e4:	c6 45 00 00          	movb   $0x0,0x0(%rbp)
  4022e8:	48 89 d8             	mov    %rbx,%rax
  4022eb:	48 8b 4c 24 08       	mov    0x8(%rsp),%rcx
  4022f0:	64 48 33 0c 25 28 00 	xor    %fs:0x28,%rcx
  4022f7:	00 00 
  4022f9:	75 14                	jne    40230f <rio_readlineb+0x9f>
  4022fb:	48 83 c4 18          	add    $0x18,%rsp
  4022ff:	5b                   	pop    %rbx
  402300:	5d                   	pop    %rbp
  402301:	41 5c                	pop    %r12
  402303:	41 5d                	pop    %r13
  402305:	c3                   	retq   
  402306:	48 c7 c0 ff ff ff ff 	mov    $0xffffffffffffffff,%rax
  40230d:	eb dc                	jmp    4022eb <rio_readlineb+0x7b>
  40230f:	e8 cc e9 ff ff       	callq  400ce0 <__stack_chk_fail@plt>

0000000000402314 <urlencode>:
  402314:	41 54                	push   %r12
  402316:	55                   	push   %rbp
  402317:	53                   	push   %rbx
  402318:	48 83 ec 10          	sub    $0x10,%rsp
  40231c:	48 89 fb             	mov    %rdi,%rbx
  40231f:	48 89 f5             	mov    %rsi,%rbp
  402322:	64 48 8b 04 25 28 00 	mov    %fs:0x28,%rax
  402329:	00 00 
  40232b:	48 89 44 24 08       	mov    %rax,0x8(%rsp)
  402330:	31 c0                	xor    %eax,%eax
  402332:	48 c7 c1 ff ff ff ff 	mov    $0xffffffffffffffff,%rcx
  402339:	f2 ae                	repnz scas %es:(%rdi),%al
  40233b:	48 89 ce             	mov    %rcx,%rsi
  40233e:	48 f7 d6             	not    %rsi
  402341:	8d 46 ff             	lea    -0x1(%rsi),%eax
  402344:	eb 0f                	jmp    402355 <urlencode+0x41>
  402346:	44 88 45 00          	mov    %r8b,0x0(%rbp)
  40234a:	48 8d 6d 01          	lea    0x1(%rbp),%rbp
  40234e:	48 83 c3 01          	add    $0x1,%rbx
  402352:	44 89 e0             	mov    %r12d,%eax
  402355:	44 8d 60 ff          	lea    -0x1(%rax),%r12d
  402359:	85 c0                	test   %eax,%eax
  40235b:	0f 84 a6 00 00 00    	je     402407 <urlencode+0xf3>
  402361:	44 0f b6 03          	movzbl (%rbx),%r8d
  402365:	41 80 f8 2a          	cmp    $0x2a,%r8b
  402369:	0f 94 c2             	sete   %dl
  40236c:	41 80 f8 2d          	cmp    $0x2d,%r8b
  402370:	0f 94 c0             	sete   %al
  402373:	08 c2                	or     %al,%dl
  402375:	75 cf                	jne    402346 <urlencode+0x32>
  402377:	41 80 f8 2e          	cmp    $0x2e,%r8b
  40237b:	74 c9                	je     402346 <urlencode+0x32>
  40237d:	41 80 f8 5f          	cmp    $0x5f,%r8b
  402381:	74 c3                	je     402346 <urlencode+0x32>
  402383:	41 8d 40 d0          	lea    -0x30(%r8),%eax
  402387:	3c 09                	cmp    $0x9,%al
  402389:	76 bb                	jbe    402346 <urlencode+0x32>
  40238b:	41 8d 40 bf          	lea    -0x41(%r8),%eax
  40238f:	3c 19                	cmp    $0x19,%al
  402391:	76 b3                	jbe    402346 <urlencode+0x32>
  402393:	41 8d 40 9f          	lea    -0x61(%r8),%eax
  402397:	3c 19                	cmp    $0x19,%al
  402399:	76 ab                	jbe    402346 <urlencode+0x32>
  40239b:	41 80 f8 20          	cmp    $0x20,%r8b
  40239f:	74 54                	je     4023f5 <urlencode+0xe1>
  4023a1:	41 8d 40 e0          	lea    -0x20(%r8),%eax
  4023a5:	3c 5f                	cmp    $0x5f,%al
  4023a7:	0f 96 c2             	setbe  %dl
  4023aa:	41 80 f8 09          	cmp    $0x9,%r8b
  4023ae:	0f 94 c0             	sete   %al
  4023b1:	08 c2                	or     %al,%dl
  4023b3:	74 4d                	je     402402 <urlencode+0xee>
  4023b5:	45 0f b6 c0          	movzbl %r8b,%r8d
  4023b9:	b9 c8 36 40 00       	mov    $0x4036c8,%ecx
  4023be:	ba 08 00 00 00       	mov    $0x8,%edx
  4023c3:	be 01 00 00 00       	mov    $0x1,%esi
  4023c8:	48 89 e7             	mov    %rsp,%rdi
  4023cb:	b8 00 00 00 00       	mov    $0x0,%eax
  4023d0:	e8 8b ea ff ff       	callq  400e60 <__sprintf_chk@plt>
  4023d5:	0f b6 04 24          	movzbl (%rsp),%eax
  4023d9:	88 45 00             	mov    %al,0x0(%rbp)
  4023dc:	0f b6 44 24 01       	movzbl 0x1(%rsp),%eax
  4023e1:	88 45 01             	mov    %al,0x1(%rbp)
  4023e4:	0f b6 44 24 02       	movzbl 0x2(%rsp),%eax
  4023e9:	88 45 02             	mov    %al,0x2(%rbp)
  4023ec:	48 8d 6d 03          	lea    0x3(%rbp),%rbp
  4023f0:	e9 59 ff ff ff       	jmpq   40234e <urlencode+0x3a>
  4023f5:	c6 45 00 2b          	movb   $0x2b,0x0(%rbp)
  4023f9:	48 8d 6d 01          	lea    0x1(%rbp),%rbp
  4023fd:	e9 4c ff ff ff       	jmpq   40234e <urlencode+0x3a>
  402402:	b8 ff ff ff ff       	mov    $0xffffffff,%eax
  402407:	48 8b 74 24 08       	mov    0x8(%rsp),%rsi
  40240c:	64 48 33 34 25 28 00 	xor    %fs:0x28,%rsi
  402413:	00 00 
  402415:	75 09                	jne    402420 <urlencode+0x10c>
  402417:	48 83 c4 10          	add    $0x10,%rsp
  40241b:	5b                   	pop    %rbx
  40241c:	5d                   	pop    %rbp
  40241d:	41 5c                	pop    %r12
  40241f:	c3                   	retq   
  402420:	e8 bb e8 ff ff       	callq  400ce0 <__stack_chk_fail@plt>

0000000000402425 <submitr>:
  402425:	41 57                	push   %r15
  402427:	41 56                	push   %r14
  402429:	41 55                	push   %r13
  40242b:	41 54                	push   %r12
  40242d:	55                   	push   %rbp
  40242e:	53                   	push   %rbx
  40242f:	48 81 ec 58 a0 00 00 	sub    $0xa058,%rsp
  402436:	49 89 fc             	mov    %rdi,%r12
  402439:	89 74 24 04          	mov    %esi,0x4(%rsp)
  40243d:	49 89 d7             	mov    %rdx,%r15
  402440:	49 89 ce             	mov    %rcx,%r14
  402443:	4c 89 44 24 08       	mov    %r8,0x8(%rsp)
  402448:	4d 89 cd             	mov    %r9,%r13
  40244b:	48 8b ac 24 90 a0 00 	mov    0xa090(%rsp),%rbp
  402452:	00 
  402453:	64 48 8b 04 25 28 00 	mov    %fs:0x28,%rax
  40245a:	00 00 
  40245c:	48 89 84 24 48 a0 00 	mov    %rax,0xa048(%rsp)
  402463:	00 
  402464:	31 c0                	xor    %eax,%eax
  402466:	c7 44 24 1c 00 00 00 	movl   $0x0,0x1c(%rsp)
  40246d:	00 
  40246e:	ba 00 00 00 00       	mov    $0x0,%edx
  402473:	be 01 00 00 00       	mov    $0x1,%esi
  402478:	bf 02 00 00 00       	mov    $0x2,%edi
  40247d:	e8 ee e9 ff ff       	callq  400e70 <socket@plt>
  402482:	85 c0                	test   %eax,%eax
  402484:	0f 88 9b 02 00 00    	js     402725 <submitr+0x300>
  40248a:	89 c3                	mov    %eax,%ebx
  40248c:	4c 89 e7             	mov    %r12,%rdi
  40248f:	e8 bc e8 ff ff       	callq  400d50 <gethostbyname@plt>
  402494:	48 85 c0             	test   %rax,%rax
  402497:	0f 84 d4 02 00 00    	je     402771 <submitr+0x34c>
  40249d:	48 c7 44 24 22 00 00 	movq   $0x0,0x22(%rsp)
  4024a4:	00 00 
  4024a6:	c7 44 24 2a 00 00 00 	movl   $0x0,0x2a(%rsp)
  4024ad:	00 
  4024ae:	66 c7 44 24 2e 00 00 	movw   $0x0,0x2e(%rsp)
  4024b5:	66 c7 44 24 20 02 00 	movw   $0x2,0x20(%rsp)
  4024bc:	48 63 50 14          	movslq 0x14(%rax),%rdx
  4024c0:	48 8b 40 18          	mov    0x18(%rax),%rax
  4024c4:	48 8b 30             	mov    (%rax),%rsi
  4024c7:	48 8d 7c 24 24       	lea    0x24(%rsp),%rdi
  4024cc:	b9 0c 00 00 00       	mov    $0xc,%ecx
  4024d1:	e8 8a e8 ff ff       	callq  400d60 <__memmove_chk@plt>
  4024d6:	0f b7 44 24 04       	movzwl 0x4(%rsp),%eax
  4024db:	66 c1 c8 08          	ror    $0x8,%ax
  4024df:	66 89 44 24 22       	mov    %ax,0x22(%rsp)
  4024e4:	ba 10 00 00 00       	mov    $0x10,%edx
  4024e9:	48 8d 74 24 20       	lea    0x20(%rsp),%rsi
  4024ee:	89 df                	mov    %ebx,%edi
  4024f0:	e8 4b e9 ff ff       	callq  400e40 <connect@plt>
  4024f5:	85 c0                	test   %eax,%eax
  4024f7:	0f 88 dc 02 00 00    	js     4027d9 <submitr+0x3b4>
  4024fd:	48 c7 c6 ff ff ff ff 	mov    $0xffffffffffffffff,%rsi
  402504:	b8 00 00 00 00       	mov    $0x0,%eax
  402509:	48 89 f1             	mov    %rsi,%rcx
  40250c:	4c 89 ef             	mov    %r13,%rdi
  40250f:	f2 ae                	repnz scas %es:(%rdi),%al
  402511:	48 89 ca             	mov    %rcx,%rdx
  402514:	48 f7 d2             	not    %rdx
  402517:	48 89 f1             	mov    %rsi,%rcx
  40251a:	4c 89 ff             	mov    %r15,%rdi
  40251d:	f2 ae                	repnz scas %es:(%rdi),%al
  40251f:	48 f7 d1             	not    %rcx
  402522:	49 89 c8             	mov    %rcx,%r8
  402525:	48 89 f1             	mov    %rsi,%rcx
  402528:	4c 89 f7             	mov    %r14,%rdi
  40252b:	f2 ae                	repnz scas %es:(%rdi),%al
  40252d:	48 f7 d1             	not    %rcx
  402530:	4d 8d 44 08 fe       	lea    -0x2(%r8,%rcx,1),%r8
  402535:	48 89 f1             	mov    %rsi,%rcx
  402538:	48 8b 7c 24 08       	mov    0x8(%rsp),%rdi
  40253d:	f2 ae                	repnz scas %es:(%rdi),%al
  40253f:	48 89 c8             	mov    %rcx,%rax
  402542:	48 f7 d0             	not    %rax
  402545:	49 8d 4c 00 ff       	lea    -0x1(%r8,%rax,1),%rcx
  40254a:	48 8d 44 52 fd       	lea    -0x3(%rdx,%rdx,2),%rax
  40254f:	48 8d 84 01 80 00 00 	lea    0x80(%rcx,%rax,1),%rax
  402556:	00 
  402557:	48 3d 00 20 00 00    	cmp    $0x2000,%rax
  40255d:	0f 87 d0 02 00 00    	ja     402833 <submitr+0x40e>
  402563:	48 8d b4 24 40 40 00 	lea    0x4040(%rsp),%rsi
  40256a:	00 
  40256b:	b9 00 04 00 00       	mov    $0x400,%ecx
  402570:	b8 00 00 00 00       	mov    $0x0,%eax
  402575:	48 89 f7             	mov    %rsi,%rdi
  402578:	f3 48 ab             	rep stos %rax,%es:(%rdi)
  40257b:	4c 89 ef             	mov    %r13,%rdi
  40257e:	e8 91 fd ff ff       	callq  402314 <urlencode>
  402583:	85 c0                	test   %eax,%eax
  402585:	0f 88 1b 03 00 00    	js     4028a6 <submitr+0x481>
  40258b:	4c 8d ac 24 40 20 00 	lea    0x2040(%rsp),%r13
  402592:	00 
  402593:	41 54                	push   %r12
  402595:	48 8d 84 24 48 40 00 	lea    0x4048(%rsp),%rax
  40259c:	00 
  40259d:	50                   	push   %rax
  40259e:	4d 89 f9             	mov    %r15,%r9
  4025a1:	4d 89 f0             	mov    %r14,%r8
  4025a4:	b9 58 36 40 00       	mov    $0x403658,%ecx
  4025a9:	ba 00 20 00 00       	mov    $0x2000,%edx
  4025ae:	be 01 00 00 00       	mov    $0x1,%esi
  4025b3:	4c 89 ef             	mov    %r13,%rdi
  4025b6:	b8 00 00 00 00       	mov    $0x0,%eax
  4025bb:	e8 a0 e8 ff ff       	callq  400e60 <__sprintf_chk@plt>
  4025c0:	48 c7 c1 ff ff ff ff 	mov    $0xffffffffffffffff,%rcx
  4025c7:	b8 00 00 00 00       	mov    $0x0,%eax
  4025cc:	4c 89 ef             	mov    %r13,%rdi
  4025cf:	f2 ae                	repnz scas %es:(%rdi),%al
  4025d1:	48 89 ca             	mov    %rcx,%rdx
  4025d4:	48 f7 d2             	not    %rdx
  4025d7:	48 8d 52 ff          	lea    -0x1(%rdx),%rdx
  4025db:	4c 89 ee             	mov    %r13,%rsi
  4025de:	89 df                	mov    %ebx,%edi
  4025e0:	e8 a2 fb ff ff       	callq  402187 <rio_writen>
  4025e5:	48 83 c4 10          	add    $0x10,%rsp
  4025e9:	48 85 c0             	test   %rax,%rax
  4025ec:	0f 88 3f 03 00 00    	js     402931 <submitr+0x50c>
  4025f2:	89 de                	mov    %ebx,%esi
  4025f4:	48 8d 7c 24 30       	lea    0x30(%rsp),%rdi
  4025f9:	e8 49 fb ff ff       	callq  402147 <rio_readinitb>
  4025fe:	ba 00 20 00 00       	mov    $0x2000,%edx
  402603:	48 8d b4 24 40 20 00 	lea    0x2040(%rsp),%rsi
  40260a:	00 
  40260b:	48 8d 7c 24 30       	lea    0x30(%rsp),%rdi
  402610:	e8 5b fc ff ff       	callq  402270 <rio_readlineb>
  402615:	48 85 c0             	test   %rax,%rax
  402618:	0f 8e 82 03 00 00    	jle    4029a0 <submitr+0x57b>
  40261e:	4c 8d 84 24 40 80 00 	lea    0x8040(%rsp),%r8
  402625:	00 
  402626:	48 8d 4c 24 1c       	lea    0x1c(%rsp),%rcx
  40262b:	48 8d 94 24 40 60 00 	lea    0x6040(%rsp),%rdx
  402632:	00 
  402633:	be cf 36 40 00       	mov    $0x4036cf,%esi
  402638:	48 8d bc 24 40 20 00 	lea    0x2040(%rsp),%rdi
  40263f:	00 
  402640:	b8 00 00 00 00       	mov    $0x0,%eax
  402645:	e8 76 e7 ff ff       	callq  400dc0 <__isoc99_sscanf@plt>
  40264a:	48 8d b4 24 40 20 00 	lea    0x2040(%rsp),%rsi
  402651:	00 
  402652:	bf e6 36 40 00       	mov    $0x4036e6,%edi
  402657:	b9 03 00 00 00       	mov    $0x3,%ecx
  40265c:	f3 a6                	repz cmpsb %es:(%rdi),%ds:(%rsi)
  40265e:	0f 97 c0             	seta   %al
  402661:	1c 00                	sbb    $0x0,%al
  402663:	84 c0                	test   %al,%al
  402665:	0f 84 b3 03 00 00    	je     402a1e <submitr+0x5f9>
  40266b:	ba 00 20 00 00       	mov    $0x2000,%edx
  402670:	48 8d b4 24 40 20 00 	lea    0x2040(%rsp),%rsi
  402677:	00 
  402678:	48 8d 7c 24 30       	lea    0x30(%rsp),%rdi
  40267d:	e8 ee fb ff ff       	callq  402270 <rio_readlineb>
  402682:	48 85 c0             	test   %rax,%rax
  402685:	7f c3                	jg     40264a <submitr+0x225>
  402687:	48 b8 45 72 72 6f 72 	movabs $0x43203a726f727245,%rax
  40268e:	3a 20 43 
  402691:	48 ba 6c 69 65 6e 74 	movabs $0x6e7520746e65696c,%rdx
  402698:	20 75 6e 
  40269b:	48 89 45 00          	mov    %rax,0x0(%rbp)
  40269f:	48 89 55 08          	mov    %rdx,0x8(%rbp)
  4026a3:	48 b8 61 62 6c 65 20 	movabs $0x206f7420656c6261,%rax
  4026aa:	74 6f 20 
  4026ad:	48 ba 72 65 61 64 20 	movabs $0x6165682064616572,%rdx
  4026b4:	68 65 61 
  4026b7:	48 89 45 10          	mov    %rax,0x10(%rbp)
  4026bb:	48 89 55 18          	mov    %rdx,0x18(%rbp)
  4026bf:	48 b8 64 65 72 73 20 	movabs $0x6f72662073726564,%rax
  4026c6:	66 72 6f 
  4026c9:	48 ba 6d 20 74 68 65 	movabs $0x657220656874206d,%rdx
  4026d0:	20 72 65 
  4026d3:	48 89 45 20          	mov    %rax,0x20(%rbp)
  4026d7:	48 89 55 28          	mov    %rdx,0x28(%rbp)
  4026db:	48 b8 73 75 6c 74 20 	movabs $0x72657320746c7573,%rax
  4026e2:	73 65 72 
  4026e5:	48 89 45 30          	mov    %rax,0x30(%rbp)
  4026e9:	c7 45 38 76 65 72 00 	movl   $0x726576,0x38(%rbp)
  4026f0:	89 df                	mov    %ebx,%edi
  4026f2:	e8 29 e6 ff ff       	callq  400d20 <close@plt>
  4026f7:	b8 ff ff ff ff       	mov    $0xffffffff,%eax
  4026fc:	48 8b 9c 24 48 a0 00 	mov    0xa048(%rsp),%rbx
  402703:	00 
  402704:	64 48 33 1c 25 28 00 	xor    %fs:0x28,%rbx
  40270b:	00 00 
  40270d:	0f 85 76 04 00 00    	jne    402b89 <submitr+0x764>
  402713:	48 81 c4 58 a0 00 00 	add    $0xa058,%rsp
  40271a:	5b                   	pop    %rbx
  40271b:	5d                   	pop    %rbp
  40271c:	41 5c                	pop    %r12
  40271e:	41 5d                	pop    %r13
  402720:	41 5e                	pop    %r14
  402722:	41 5f                	pop    %r15
  402724:	c3                   	retq   
  402725:	48 b8 45 72 72 6f 72 	movabs $0x43203a726f727245,%rax
  40272c:	3a 20 43 
  40272f:	48 ba 6c 69 65 6e 74 	movabs $0x6e7520746e65696c,%rdx
  402736:	20 75 6e 
  402739:	48 89 45 00          	mov    %rax,0x0(%rbp)
  40273d:	48 89 55 08          	mov    %rdx,0x8(%rbp)
  402741:	48 b8 61 62 6c 65 20 	movabs $0x206f7420656c6261,%rax
  402748:	74 6f 20 
  40274b:	48 ba 63 72 65 61 74 	movabs $0x7320657461657263,%rdx
  402752:	65 20 73 
  402755:	48 89 45 10          	mov    %rax,0x10(%rbp)
  402759:	48 89 55 18          	mov    %rdx,0x18(%rbp)
  40275d:	c7 45 20 6f 63 6b 65 	movl   $0x656b636f,0x20(%rbp)
  402764:	66 c7 45 24 74 00    	movw   $0x74,0x24(%rbp)
  40276a:	b8 ff ff ff ff       	mov    $0xffffffff,%eax
  40276f:	eb 8b                	jmp    4026fc <submitr+0x2d7>
  402771:	48 b8 45 72 72 6f 72 	movabs $0x44203a726f727245,%rax
  402778:	3a 20 44 
  40277b:	48 ba 4e 53 20 69 73 	movabs $0x6e7520736920534e,%rdx
  402782:	20 75 6e 
  402785:	48 89 45 00          	mov    %rax,0x0(%rbp)
  402789:	48 89 55 08          	mov    %rdx,0x8(%rbp)
  40278d:	48 b8 61 62 6c 65 20 	movabs $0x206f7420656c6261,%rax
  402794:	74 6f 20 
  402797:	48 ba 72 65 73 6f 6c 	movabs $0x2065766c6f736572,%rdx
  40279e:	76 65 20 
  4027a1:	48 89 45 10          	mov    %rax,0x10(%rbp)
  4027a5:	48 89 55 18          	mov    %rdx,0x18(%rbp)
  4027a9:	48 b8 73 65 72 76 65 	movabs $0x6120726576726573,%rax
  4027b0:	72 20 61 
  4027b3:	48 89 45 20          	mov    %rax,0x20(%rbp)
  4027b7:	c7 45 28 64 64 72 65 	movl   $0x65726464,0x28(%rbp)
  4027be:	66 c7 45 2c 73 73    	movw   $0x7373,0x2c(%rbp)
  4027c4:	c6 45 2e 00          	movb   $0x0,0x2e(%rbp)
  4027c8:	89 df                	mov    %ebx,%edi
  4027ca:	e8 51 e5 ff ff       	callq  400d20 <close@plt>
  4027cf:	b8 ff ff ff ff       	mov    $0xffffffff,%eax
  4027d4:	e9 23 ff ff ff       	jmpq   4026fc <submitr+0x2d7>
  4027d9:	48 b8 45 72 72 6f 72 	movabs $0x55203a726f727245,%rax
  4027e0:	3a 20 55 
  4027e3:	48 ba 6e 61 62 6c 65 	movabs $0x6f7420656c62616e,%rdx
  4027ea:	20 74 6f 
  4027ed:	48 89 45 00          	mov    %rax,0x0(%rbp)
  4027f1:	48 89 55 08          	mov    %rdx,0x8(%rbp)
  4027f5:	48 b8 20 63 6f 6e 6e 	movabs $0x7463656e6e6f6320,%rax
  4027fc:	65 63 74 
  4027ff:	48 ba 20 74 6f 20 74 	movabs $0x20656874206f7420,%rdx
  402806:	68 65 20 
  402809:	48 89 45 10          	mov    %rax,0x10(%rbp)
  40280d:	48 89 55 18          	mov    %rdx,0x18(%rbp)
  402811:	c7 45 20 73 65 72 76 	movl   $0x76726573,0x20(%rbp)
  402818:	66 c7 45 24 65 72    	movw   $0x7265,0x24(%rbp)
  40281e:	c6 45 26 00          	movb   $0x0,0x26(%rbp)
  402822:	89 df                	mov    %ebx,%edi
  402824:	e8 f7 e4 ff ff       	callq  400d20 <close@plt>
  402829:	b8 ff ff ff ff       	mov    $0xffffffff,%eax
  40282e:	e9 c9 fe ff ff       	jmpq   4026fc <submitr+0x2d7>
  402833:	48 b8 45 72 72 6f 72 	movabs $0x52203a726f727245,%rax
  40283a:	3a 20 52 
  40283d:	48 ba 65 73 75 6c 74 	movabs $0x747320746c757365,%rdx
  402844:	20 73 74 
  402847:	48 89 45 00          	mov    %rax,0x0(%rbp)
  40284b:	48 89 55 08          	mov    %rdx,0x8(%rbp)
  40284f:	48 b8 72 69 6e 67 20 	movabs $0x6f6f7420676e6972,%rax
  402856:	74 6f 6f 
  402859:	48 ba 20 6c 61 72 67 	movabs $0x202e656772616c20,%rdx
  402860:	65 2e 20 
  402863:	48 89 45 10          	mov    %rax,0x10(%rbp)
  402867:	48 89 55 18          	mov    %rdx,0x18(%rbp)
  40286b:	48 b8 49 6e 63 72 65 	movabs $0x6573616572636e49,%rax
  402872:	61 73 65 
  402875:	48 ba 20 53 55 42 4d 	movabs $0x5254494d42555320,%rdx
  40287c:	49 54 52 
  40287f:	48 89 45 20          	mov    %rax,0x20(%rbp)
  402883:	48 89 55 28          	mov    %rdx,0x28(%rbp)
  402887:	48 b8 5f 4d 41 58 42 	movabs $0x46554258414d5f,%rax
  40288e:	55 46 00 
  402891:	48 89 45 30          	mov    %rax,0x30(%rbp)
  402895:	89 df                	mov    %ebx,%edi
  402897:	e8 84 e4 ff ff       	callq  400d20 <close@plt>
  40289c:	b8 ff ff ff ff       	mov    $0xffffffff,%eax
  4028a1:	e9 56 fe ff ff       	jmpq   4026fc <submitr+0x2d7>
  4028a6:	48 b8 45 72 72 6f 72 	movabs $0x52203a726f727245,%rax
  4028ad:	3a 20 52 
  4028b0:	48 ba 65 73 75 6c 74 	movabs $0x747320746c757365,%rdx
  4028b7:	20 73 74 
  4028ba:	48 89 45 00          	mov    %rax,0x0(%rbp)
  4028be:	48 89 55 08          	mov    %rdx,0x8(%rbp)
  4028c2:	48 b8 72 69 6e 67 20 	movabs $0x6e6f6320676e6972,%rax
  4028c9:	63 6f 6e 
  4028cc:	48 ba 74 61 69 6e 73 	movabs $0x6e6120736e696174,%rdx
  4028d3:	20 61 6e 
  4028d6:	48 89 45 10          	mov    %rax,0x10(%rbp)
  4028da:	48 89 55 18          	mov    %rdx,0x18(%rbp)
  4028de:	48 b8 20 69 6c 6c 65 	movabs $0x6c6167656c6c6920,%rax
  4028e5:	67 61 6c 
  4028e8:	48 ba 20 6f 72 20 75 	movabs $0x72706e7520726f20,%rdx
  4028ef:	6e 70 72 
  4028f2:	48 89 45 20          	mov    %rax,0x20(%rbp)
  4028f6:	48 89 55 28          	mov    %rdx,0x28(%rbp)
  4028fa:	48 b8 69 6e 74 61 62 	movabs $0x20656c6261746e69,%rax
  402901:	6c 65 20 
  402904:	48 ba 63 68 61 72 61 	movabs $0x6574636172616863,%rdx
  40290b:	63 74 65 
  40290e:	48 89 45 30          	mov    %rax,0x30(%rbp)
  402912:	48 89 55 38          	mov    %rdx,0x38(%rbp)
  402916:	66 c7 45 40 72 2e    	movw   $0x2e72,0x40(%rbp)
  40291c:	c6 45 42 00          	movb   $0x0,0x42(%rbp)
  402920:	89 df                	mov    %ebx,%edi
  402922:	e8 f9 e3 ff ff       	callq  400d20 <close@plt>
  402927:	b8 ff ff ff ff       	mov    $0xffffffff,%eax
  40292c:	e9 cb fd ff ff       	jmpq   4026fc <submitr+0x2d7>
  402931:	48 b8 45 72 72 6f 72 	movabs $0x43203a726f727245,%rax
  402938:	3a 20 43 
  40293b:	48 ba 6c 69 65 6e 74 	movabs $0x6e7520746e65696c,%rdx
  402942:	20 75 6e 
  402945:	48 89 45 00          	mov    %rax,0x0(%rbp)
  402949:	48 89 55 08          	mov    %rdx,0x8(%rbp)
  40294d:	48 b8 61 62 6c 65 20 	movabs $0x206f7420656c6261,%rax
  402954:	74 6f 20 
  402957:	48 ba 77 72 69 74 65 	movabs $0x6f74206574697277,%rdx
  40295e:	20 74 6f 
  402961:	48 89 45 10          	mov    %rax,0x10(%rbp)
  402965:	48 89 55 18          	mov    %rdx,0x18(%rbp)
  402969:	48 b8 20 74 68 65 20 	movabs $0x7365722065687420,%rax
  402970:	72 65 73 
  402973:	48 ba 75 6c 74 20 73 	movabs $0x7672657320746c75,%rdx
  40297a:	65 72 76 
  40297d:	48 89 45 20          	mov    %rax,0x20(%rbp)
  402981:	48 89 55 28          	mov    %rdx,0x28(%rbp)
  402985:	66 c7 45 30 65 72    	movw   $0x7265,0x30(%rbp)
  40298b:	c6 45 32 00          	movb   $0x0,0x32(%rbp)
  40298f:	89 df                	mov    %ebx,%edi
  402991:	e8 8a e3 ff ff       	callq  400d20 <close@plt>
  402996:	b8 ff ff ff ff       	mov    $0xffffffff,%eax
  40299b:	e9 5c fd ff ff       	jmpq   4026fc <submitr+0x2d7>
  4029a0:	48 b8 45 72 72 6f 72 	movabs $0x43203a726f727245,%rax
  4029a7:	3a 20 43 
  4029aa:	48 ba 6c 69 65 6e 74 	movabs $0x6e7520746e65696c,%rdx
  4029b1:	20 75 6e 
  4029b4:	48 89 45 00          	mov    %rax,0x0(%rbp)
  4029b8:	48 89 55 08          	mov    %rdx,0x8(%rbp)
  4029bc:	48 b8 61 62 6c 65 20 	movabs $0x206f7420656c6261,%rax
  4029c3:	74 6f 20 
  4029c6:	48 ba 72 65 61 64 20 	movabs $0x7269662064616572,%rdx
  4029cd:	66 69 72 
  4029d0:	48 89 45 10          	mov    %rax,0x10(%rbp)
  4029d4:	48 89 55 18          	mov    %rdx,0x18(%rbp)
  4029d8:	48 b8 73 74 20 68 65 	movabs $0x6564616568207473,%rax
  4029df:	61 64 65 
  4029e2:	48 ba 72 20 66 72 6f 	movabs $0x72206d6f72662072,%rdx
  4029e9:	6d 20 72 
  4029ec:	48 89 45 20          	mov    %rax,0x20(%rbp)
  4029f0:	48 89 55 28          	mov    %rdx,0x28(%rbp)
  4029f4:	48 b8 65 73 75 6c 74 	movabs $0x657320746c757365,%rax
  4029fb:	20 73 65 
  4029fe:	48 89 45 30          	mov    %rax,0x30(%rbp)
  402a02:	c7 45 38 72 76 65 72 	movl   $0x72657672,0x38(%rbp)
  402a09:	c6 45 3c 00          	movb   $0x0,0x3c(%rbp)
  402a0d:	89 df                	mov    %ebx,%edi
  402a0f:	e8 0c e3 ff ff       	callq  400d20 <close@plt>
  402a14:	b8 ff ff ff ff       	mov    $0xffffffff,%eax
  402a19:	e9 de fc ff ff       	jmpq   4026fc <submitr+0x2d7>
  402a1e:	ba 00 20 00 00       	mov    $0x2000,%edx
  402a23:	48 8d b4 24 40 20 00 	lea    0x2040(%rsp),%rsi
  402a2a:	00 
  402a2b:	48 8d 7c 24 30       	lea    0x30(%rsp),%rdi
  402a30:	e8 3b f8 ff ff       	callq  402270 <rio_readlineb>
  402a35:	48 85 c0             	test   %rax,%rax
  402a38:	0f 8e 90 00 00 00    	jle    402ace <submitr+0x6a9>
  402a3e:	44 8b 44 24 1c       	mov    0x1c(%rsp),%r8d
  402a43:	41 81 f8 c8 00 00 00 	cmp    $0xc8,%r8d
  402a4a:	0f 85 02 01 00 00    	jne    402b52 <submitr+0x72d>
  402a50:	48 8d b4 24 40 20 00 	lea    0x2040(%rsp),%rsi
  402a57:	00 
  402a58:	48 89 ef             	mov    %rbp,%rdi
  402a5b:	e8 50 e2 ff ff       	callq  400cb0 <strcpy@plt>
  402a60:	89 df                	mov    %ebx,%edi
  402a62:	e8 b9 e2 ff ff       	callq  400d20 <close@plt>
  402a67:	bf e0 36 40 00       	mov    $0x4036e0,%edi
  402a6c:	b9 04 00 00 00       	mov    $0x4,%ecx
  402a71:	48 89 ee             	mov    %rbp,%rsi
  402a74:	f3 a6                	repz cmpsb %es:(%rdi),%ds:(%rsi)
  402a76:	0f 97 c0             	seta   %al
  402a79:	1c 00                	sbb    $0x0,%al
  402a7b:	0f be c0             	movsbl %al,%eax
  402a7e:	85 c0                	test   %eax,%eax
  402a80:	0f 84 76 fc ff ff    	je     4026fc <submitr+0x2d7>
  402a86:	bf e4 36 40 00       	mov    $0x4036e4,%edi
  402a8b:	b9 05 00 00 00       	mov    $0x5,%ecx
  402a90:	48 89 ee             	mov    %rbp,%rsi
  402a93:	f3 a6                	repz cmpsb %es:(%rdi),%ds:(%rsi)
  402a95:	0f 97 c0             	seta   %al
  402a98:	1c 00                	sbb    $0x0,%al
  402a9a:	0f be c0             	movsbl %al,%eax
  402a9d:	85 c0                	test   %eax,%eax
  402a9f:	0f 84 57 fc ff ff    	je     4026fc <submitr+0x2d7>
  402aa5:	bf e9 36 40 00       	mov    $0x4036e9,%edi
  402aaa:	b9 03 00 00 00       	mov    $0x3,%ecx
  402aaf:	48 89 ee             	mov    %rbp,%rsi
  402ab2:	f3 a6                	repz cmpsb %es:(%rdi),%ds:(%rsi)
  402ab4:	0f 97 c0             	seta   %al
  402ab7:	1c 00                	sbb    $0x0,%al
  402ab9:	0f be c0             	movsbl %al,%eax
  402abc:	85 c0                	test   %eax,%eax
  402abe:	0f 84 38 fc ff ff    	je     4026fc <submitr+0x2d7>
  402ac4:	b8 ff ff ff ff       	mov    $0xffffffff,%eax
  402ac9:	e9 2e fc ff ff       	jmpq   4026fc <submitr+0x2d7>
  402ace:	48 b8 45 72 72 6f 72 	movabs $0x43203a726f727245,%rax
  402ad5:	3a 20 43 
  402ad8:	48 ba 6c 69 65 6e 74 	movabs $0x6e7520746e65696c,%rdx
  402adf:	20 75 6e 
  402ae2:	48 89 45 00          	mov    %rax,0x0(%rbp)
  402ae6:	48 89 55 08          	mov    %rdx,0x8(%rbp)
  402aea:	48 b8 61 62 6c 65 20 	movabs $0x206f7420656c6261,%rax
  402af1:	74 6f 20 
  402af4:	48 ba 72 65 61 64 20 	movabs $0x6174732064616572,%rdx
  402afb:	73 74 61 
  402afe:	48 89 45 10          	mov    %rax,0x10(%rbp)
  402b02:	48 89 55 18          	mov    %rdx,0x18(%rbp)
  402b06:	48 b8 74 75 73 20 6d 	movabs $0x7373656d20737574,%rax
  402b0d:	65 73 73 
  402b10:	48 ba 61 67 65 20 66 	movabs $0x6d6f726620656761,%rdx
  402b17:	72 6f 6d 
  402b1a:	48 89 45 20          	mov    %rax,0x20(%rbp)
  402b1e:	48 89 55 28          	mov    %rdx,0x28(%rbp)
  402b22:	48 b8 20 72 65 73 75 	movabs $0x20746c7573657220,%rax
  402b29:	6c 74 20 
  402b2c:	48 89 45 30          	mov    %rax,0x30(%rbp)
  402b30:	c7 45 38 73 65 72 76 	movl   $0x76726573,0x38(%rbp)
  402b37:	66 c7 45 3c 65 72    	movw   $0x7265,0x3c(%rbp)
  402b3d:	c6 45 3e 00          	movb   $0x0,0x3e(%rbp)
  402b41:	89 df                	mov    %ebx,%edi
  402b43:	e8 d8 e1 ff ff       	callq  400d20 <close@plt>
  402b48:	b8 ff ff ff ff       	mov    $0xffffffff,%eax
  402b4d:	e9 aa fb ff ff       	jmpq   4026fc <submitr+0x2d7>
  402b52:	4c 8d 8c 24 40 80 00 	lea    0x8040(%rsp),%r9
  402b59:	00 
  402b5a:	b9 98 36 40 00       	mov    $0x403698,%ecx
  402b5f:	48 c7 c2 ff ff ff ff 	mov    $0xffffffffffffffff,%rdx
  402b66:	be 01 00 00 00       	mov    $0x1,%esi
  402b6b:	48 89 ef             	mov    %rbp,%rdi
  402b6e:	b8 00 00 00 00       	mov    $0x0,%eax
  402b73:	e8 e8 e2 ff ff       	callq  400e60 <__sprintf_chk@plt>
  402b78:	89 df                	mov    %ebx,%edi
  402b7a:	e8 a1 e1 ff ff       	callq  400d20 <close@plt>
  402b7f:	b8 ff ff ff ff       	mov    $0xffffffff,%eax
  402b84:	e9 73 fb ff ff       	jmpq   4026fc <submitr+0x2d7>
  402b89:	e8 52 e1 ff ff       	callq  400ce0 <__stack_chk_fail@plt>

0000000000402b8e <init_timeout>:
  402b8e:	85 ff                	test   %edi,%edi
  402b90:	74 26                	je     402bb8 <init_timeout+0x2a>
  402b92:	53                   	push   %rbx
  402b93:	89 fb                	mov    %edi,%ebx
  402b95:	85 ff                	test   %edi,%edi
  402b97:	78 18                	js     402bb1 <init_timeout+0x23>
  402b99:	be 59 21 40 00       	mov    $0x402159,%esi
  402b9e:	bf 0e 00 00 00       	mov    $0xe,%edi
  402ba3:	e8 98 e1 ff ff       	callq  400d40 <signal@plt>
  402ba8:	89 df                	mov    %ebx,%edi
  402baa:	e8 61 e1 ff ff       	callq  400d10 <alarm@plt>
  402baf:	5b                   	pop    %rbx
  402bb0:	c3                   	retq   
  402bb1:	bb 00 00 00 00       	mov    $0x0,%ebx
  402bb6:	eb e1                	jmp    402b99 <init_timeout+0xb>
  402bb8:	f3 c3                	repz retq 

0000000000402bba <init_driver>:
  402bba:	55                   	push   %rbp
  402bbb:	53                   	push   %rbx
  402bbc:	48 83 ec 28          	sub    $0x28,%rsp
  402bc0:	48 89 fd             	mov    %rdi,%rbp
  402bc3:	64 48 8b 04 25 28 00 	mov    %fs:0x28,%rax
  402bca:	00 00 
  402bcc:	48 89 44 24 18       	mov    %rax,0x18(%rsp)
  402bd1:	31 c0                	xor    %eax,%eax
  402bd3:	be 01 00 00 00       	mov    $0x1,%esi
  402bd8:	bf 0d 00 00 00       	mov    $0xd,%edi
  402bdd:	e8 5e e1 ff ff       	callq  400d40 <signal@plt>
  402be2:	be 01 00 00 00       	mov    $0x1,%esi
  402be7:	bf 1d 00 00 00       	mov    $0x1d,%edi
  402bec:	e8 4f e1 ff ff       	callq  400d40 <signal@plt>
  402bf1:	be 01 00 00 00       	mov    $0x1,%esi
  402bf6:	bf 1d 00 00 00       	mov    $0x1d,%edi
  402bfb:	e8 40 e1 ff ff       	callq  400d40 <signal@plt>
  402c00:	ba 00 00 00 00       	mov    $0x0,%edx
  402c05:	be 01 00 00 00       	mov    $0x1,%esi
  402c0a:	bf 02 00 00 00       	mov    $0x2,%edi
  402c0f:	e8 5c e2 ff ff       	callq  400e70 <socket@plt>
  402c14:	85 c0                	test   %eax,%eax
  402c16:	0f 88 9c 00 00 00    	js     402cb8 <init_driver+0xfe>
  402c1c:	89 c3                	mov    %eax,%ebx
  402c1e:	bf 2c 32 40 00       	mov    $0x40322c,%edi
  402c23:	e8 28 e1 ff ff       	callq  400d50 <gethostbyname@plt>
  402c28:	48 85 c0             	test   %rax,%rax
  402c2b:	0f 84 d3 00 00 00    	je     402d04 <init_driver+0x14a>
  402c31:	48 c7 44 24 02 00 00 	movq   $0x0,0x2(%rsp)
  402c38:	00 00 
  402c3a:	c7 44 24 0a 00 00 00 	movl   $0x0,0xa(%rsp)
  402c41:	00 
  402c42:	66 c7 44 24 0e 00 00 	movw   $0x0,0xe(%rsp)
  402c49:	66 c7 04 24 02 00    	movw   $0x2,(%rsp)
  402c4f:	48 63 50 14          	movslq 0x14(%rax),%rdx
  402c53:	48 8b 40 18          	mov    0x18(%rax),%rax
  402c57:	48 8b 30             	mov    (%rax),%rsi
  402c5a:	48 8d 7c 24 04       	lea    0x4(%rsp),%rdi
  402c5f:	b9 0c 00 00 00       	mov    $0xc,%ecx
  402c64:	e8 f7 e0 ff ff       	callq  400d60 <__memmove_chk@plt>
  402c69:	66 c7 44 24 02 3b 72 	movw   $0x723b,0x2(%rsp)
  402c70:	ba 10 00 00 00       	mov    $0x10,%edx
  402c75:	48 89 e6             	mov    %rsp,%rsi
  402c78:	89 df                	mov    %ebx,%edi
  402c7a:	e8 c1 e1 ff ff       	callq  400e40 <connect@plt>
  402c7f:	85 c0                	test   %eax,%eax
  402c81:	0f 88 e5 00 00 00    	js     402d6c <init_driver+0x1b2>
  402c87:	89 df                	mov    %ebx,%edi
  402c89:	e8 92 e0 ff ff       	callq  400d20 <close@plt>
  402c8e:	66 c7 45 00 4f 4b    	movw   $0x4b4f,0x0(%rbp)
  402c94:	c6 45 02 00          	movb   $0x0,0x2(%rbp)
  402c98:	b8 00 00 00 00       	mov    $0x0,%eax
  402c9d:	48 8b 4c 24 18       	mov    0x18(%rsp),%rcx
  402ca2:	64 48 33 0c 25 28 00 	xor    %fs:0x28,%rcx
  402ca9:	00 00 
  402cab:	0f 85 0e 01 00 00    	jne    402dbf <init_driver+0x205>
  402cb1:	48 83 c4 28          	add    $0x28,%rsp
  402cb5:	5b                   	pop    %rbx
  402cb6:	5d                   	pop    %rbp
  402cb7:	c3                   	retq   
  402cb8:	48 b8 45 72 72 6f 72 	movabs $0x43203a726f727245,%rax
  402cbf:	3a 20 43 
  402cc2:	48 ba 6c 69 65 6e 74 	movabs $0x6e7520746e65696c,%rdx
  402cc9:	20 75 6e 
  402ccc:	48 89 45 00          	mov    %rax,0x0(%rbp)
  402cd0:	48 89 55 08          	mov    %rdx,0x8(%rbp)
  402cd4:	48 b8 61 62 6c 65 20 	movabs $0x206f7420656c6261,%rax
  402cdb:	74 6f 20 
  402cde:	48 ba 63 72 65 61 74 	movabs $0x7320657461657263,%rdx
  402ce5:	65 20 73 
  402ce8:	48 89 45 10          	mov    %rax,0x10(%rbp)
  402cec:	48 89 55 18          	mov    %rdx,0x18(%rbp)
  402cf0:	c7 45 20 6f 63 6b 65 	movl   $0x656b636f,0x20(%rbp)
  402cf7:	66 c7 45 24 74 00    	movw   $0x74,0x24(%rbp)
  402cfd:	b8 ff ff ff ff       	mov    $0xffffffff,%eax
  402d02:	eb 99                	jmp    402c9d <init_driver+0xe3>
  402d04:	48 b8 45 72 72 6f 72 	movabs $0x44203a726f727245,%rax
  402d0b:	3a 20 44 
  402d0e:	48 ba 4e 53 20 69 73 	movabs $0x6e7520736920534e,%rdx
  402d15:	20 75 6e 
  402d18:	48 89 45 00          	mov    %rax,0x0(%rbp)
  402d1c:	48 89 55 08          	mov    %rdx,0x8(%rbp)
  402d20:	48 b8 61 62 6c 65 20 	movabs $0x206f7420656c6261,%rax
  402d27:	74 6f 20 
  402d2a:	48 ba 72 65 73 6f 6c 	movabs $0x2065766c6f736572,%rdx
  402d31:	76 65 20 
  402d34:	48 89 45 10          	mov    %rax,0x10(%rbp)
  402d38:	48 89 55 18          	mov    %rdx,0x18(%rbp)
  402d3c:	48 b8 73 65 72 76 65 	movabs $0x6120726576726573,%rax
  402d43:	72 20 61 
  402d46:	48 89 45 20          	mov    %rax,0x20(%rbp)
  402d4a:	c7 45 28 64 64 72 65 	movl   $0x65726464,0x28(%rbp)
  402d51:	66 c7 45 2c 73 73    	movw   $0x7373,0x2c(%rbp)
  402d57:	c6 45 2e 00          	movb   $0x0,0x2e(%rbp)
  402d5b:	89 df                	mov    %ebx,%edi
  402d5d:	e8 be df ff ff       	callq  400d20 <close@plt>
  402d62:	b8 ff ff ff ff       	mov    $0xffffffff,%eax
  402d67:	e9 31 ff ff ff       	jmpq   402c9d <init_driver+0xe3>
  402d6c:	48 b8 45 72 72 6f 72 	movabs $0x55203a726f727245,%rax
  402d73:	3a 20 55 
  402d76:	48 ba 6e 61 62 6c 65 	movabs $0x6f7420656c62616e,%rdx
  402d7d:	20 74 6f 
  402d80:	48 89 45 00          	mov    %rax,0x0(%rbp)
  402d84:	48 89 55 08          	mov    %rdx,0x8(%rbp)
  402d88:	48 b8 20 63 6f 6e 6e 	movabs $0x7463656e6e6f6320,%rax
  402d8f:	65 63 74 
  402d92:	48 ba 20 74 6f 20 73 	movabs $0x76726573206f7420,%rdx
  402d99:	65 72 76 
  402d9c:	48 89 45 10          	mov    %rax,0x10(%rbp)
  402da0:	48 89 55 18          	mov    %rdx,0x18(%rbp)
  402da4:	66 c7 45 20 65 72    	movw   $0x7265,0x20(%rbp)
  402daa:	c6 45 22 00          	movb   $0x0,0x22(%rbp)
  402dae:	89 df                	mov    %ebx,%edi
  402db0:	e8 6b df ff ff       	callq  400d20 <close@plt>
  402db5:	b8 ff ff ff ff       	mov    $0xffffffff,%eax
  402dba:	e9 de fe ff ff       	jmpq   402c9d <init_driver+0xe3>
  402dbf:	e8 1c df ff ff       	callq  400ce0 <__stack_chk_fail@plt>

0000000000402dc4 <driver_post>:
  402dc4:	53                   	push   %rbx
  402dc5:	4c 89 cb             	mov    %r9,%rbx
  402dc8:	45 85 c0             	test   %r8d,%r8d
  402dcb:	75 18                	jne    402de5 <driver_post+0x21>
  402dcd:	48 85 ff             	test   %rdi,%rdi
  402dd0:	74 05                	je     402dd7 <driver_post+0x13>
  402dd2:	80 3f 00             	cmpb   $0x0,(%rdi)
  402dd5:	75 35                	jne    402e0c <driver_post+0x48>
  402dd7:	66 c7 03 4f 4b       	movw   $0x4b4f,(%rbx)
  402ddc:	c6 43 02 00          	movb   $0x0,0x2(%rbx)
  402de0:	44 89 c0             	mov    %r8d,%eax
  402de3:	5b                   	pop    %rbx
  402de4:	c3                   	retq   
  402de5:	48 89 ca             	mov    %rcx,%rdx
  402de8:	be ec 36 40 00       	mov    $0x4036ec,%esi
  402ded:	bf 01 00 00 00       	mov    $0x1,%edi
  402df2:	b8 00 00 00 00       	mov    $0x0,%eax
  402df7:	e8 e4 df ff ff       	callq  400de0 <__printf_chk@plt>
  402dfc:	66 c7 03 4f 4b       	movw   $0x4b4f,(%rbx)
  402e01:	c6 43 02 00          	movb   $0x0,0x2(%rbx)
  402e05:	b8 00 00 00 00       	mov    $0x0,%eax
  402e0a:	eb d7                	jmp    402de3 <driver_post+0x1f>
  402e0c:	48 83 ec 08          	sub    $0x8,%rsp
  402e10:	41 51                	push   %r9
  402e12:	49 89 c9             	mov    %rcx,%r9
  402e15:	49 89 d0             	mov    %rdx,%r8
  402e18:	48 89 f9             	mov    %rdi,%rcx
  402e1b:	48 89 f2             	mov    %rsi,%rdx
  402e1e:	be 72 3b 00 00       	mov    $0x3b72,%esi
  402e23:	bf 2c 32 40 00       	mov    $0x40322c,%edi
  402e28:	e8 f8 f5 ff ff       	callq  402425 <submitr>
  402e2d:	48 83 c4 10          	add    $0x10,%rsp
  402e31:	eb b0                	jmp    402de3 <driver_post+0x1f>

0000000000402e33 <check>:
  402e33:	89 f8                	mov    %edi,%eax
  402e35:	c1 e8 1c             	shr    $0x1c,%eax
  402e38:	85 c0                	test   %eax,%eax
  402e3a:	74 1d                	je     402e59 <check+0x26>
  402e3c:	b9 00 00 00 00       	mov    $0x0,%ecx
  402e41:	83 f9 1f             	cmp    $0x1f,%ecx
  402e44:	7f 0d                	jg     402e53 <check+0x20>
  402e46:	89 f8                	mov    %edi,%eax
  402e48:	d3 e8                	shr    %cl,%eax
  402e4a:	3c 0a                	cmp    $0xa,%al
  402e4c:	74 11                	je     402e5f <check+0x2c>
  402e4e:	83 c1 08             	add    $0x8,%ecx
  402e51:	eb ee                	jmp    402e41 <check+0xe>
  402e53:	b8 01 00 00 00       	mov    $0x1,%eax
  402e58:	c3                   	retq   
  402e59:	b8 00 00 00 00       	mov    $0x0,%eax
  402e5e:	c3                   	retq   
  402e5f:	b8 00 00 00 00       	mov    $0x0,%eax
  402e64:	c3                   	retq   

0000000000402e65 <gencookie>:
  402e65:	53                   	push   %rbx
  402e66:	83 c7 01             	add    $0x1,%edi
  402e69:	e8 22 de ff ff       	callq  400c90 <srandom@plt>
  402e6e:	e8 2d df ff ff       	callq  400da0 <random@plt>
  402e73:	89 c3                	mov    %eax,%ebx
  402e75:	89 c7                	mov    %eax,%edi
  402e77:	e8 b7 ff ff ff       	callq  402e33 <check>
  402e7c:	85 c0                	test   %eax,%eax
  402e7e:	74 ee                	je     402e6e <gencookie+0x9>
  402e80:	89 d8                	mov    %ebx,%eax
  402e82:	5b                   	pop    %rbx
  402e83:	c3                   	retq   
  402e84:	66 2e 0f 1f 84 00 00 	nopw   %cs:0x0(%rax,%rax,1)
  402e8b:	00 00 00 
  402e8e:	66 90                	xchg   %ax,%ax

0000000000402e90 <__libc_csu_init>:
  402e90:	41 57                	push   %r15
  402e92:	41 56                	push   %r14
  402e94:	49 89 d7             	mov    %rdx,%r15
  402e97:	41 55                	push   %r13
  402e99:	41 54                	push   %r12
  402e9b:	4c 8d 25 6e 0f 20 00 	lea    0x200f6e(%rip),%r12        # 603e10 <__frame_dummy_init_array_entry>
  402ea2:	55                   	push   %rbp
  402ea3:	48 8d 2d 6e 0f 20 00 	lea    0x200f6e(%rip),%rbp        # 603e18 <__init_array_end>
  402eaa:	53                   	push   %rbx
  402eab:	41 89 fd             	mov    %edi,%r13d
  402eae:	49 89 f6             	mov    %rsi,%r14
  402eb1:	4c 29 e5             	sub    %r12,%rbp
  402eb4:	48 83 ec 08          	sub    $0x8,%rsp
  402eb8:	48 c1 fd 03          	sar    $0x3,%rbp
  402ebc:	e8 87 dd ff ff       	callq  400c48 <_init>
  402ec1:	48 85 ed             	test   %rbp,%rbp
  402ec4:	74 20                	je     402ee6 <__libc_csu_init+0x56>
  402ec6:	31 db                	xor    %ebx,%ebx
  402ec8:	0f 1f 84 00 00 00 00 	nopl   0x0(%rax,%rax,1)
  402ecf:	00 
  402ed0:	4c 89 fa             	mov    %r15,%rdx
  402ed3:	4c 89 f6             	mov    %r14,%rsi
  402ed6:	44 89 ef             	mov    %r13d,%edi
  402ed9:	41 ff 14 dc          	callq  *(%r12,%rbx,8)
  402edd:	48 83 c3 01          	add    $0x1,%rbx
  402ee1:	48 39 dd             	cmp    %rbx,%rbp
  402ee4:	75 ea                	jne    402ed0 <__libc_csu_init+0x40>
  402ee6:	48 83 c4 08          	add    $0x8,%rsp
  402eea:	5b                   	pop    %rbx
  402eeb:	5d                   	pop    %rbp
  402eec:	41 5c                	pop    %r12
  402eee:	41 5d                	pop    %r13
  402ef0:	41 5e                	pop    %r14
  402ef2:	41 5f                	pop    %r15
  402ef4:	c3                   	retq   
  402ef5:	90                   	nop
  402ef6:	66 2e 0f 1f 84 00 00 	nopw   %cs:0x0(%rax,%rax,1)
  402efd:	00 00 00 

0000000000402f00 <__libc_csu_fini>:
  402f00:	f3 c3                	repz retq 

Disassembly of section .fini:

0000000000402f04 <_fini>:
  402f04:	48 83 ec 08          	sub    $0x8,%rsp
  402f08:	48 83 c4 08          	add    $0x8,%rsp
  402f0c:	c3                   	retq   
