
rtarget:     file format elf64-x86-64


Disassembly of section .init:

0000000000400c48 <_init>:
  400c48:	48 83 ec 08          	sub    $0x8,%rsp
  400c4c:	48 8b 05 a5 43 20 00 	mov    0x2043a5(%rip),%rax        # 604ff8 <__gmon_start__>
  400c53:	48 85 c0             	test   %rax,%rax
  400c56:	74 02                	je     400c5a <_init+0x12>
  400c58:	ff d0                	callq  *%rax
  400c5a:	48 83 c4 08          	add    $0x8,%rsp
  400c5e:	c3                   	retq   

Disassembly of section .plt:

0000000000400c60 <.plt>:
  400c60:	ff 35 a2 43 20 00    	pushq  0x2043a2(%rip)        # 605008 <_GLOBAL_OFFSET_TABLE_+0x8>
  400c66:	ff 25 a4 43 20 00    	jmpq   *0x2043a4(%rip)        # 605010 <_GLOBAL_OFFSET_TABLE_+0x10>
  400c6c:	0f 1f 40 00          	nopl   0x0(%rax)

0000000000400c70 <strcasecmp@plt>:
  400c70:	ff 25 a2 43 20 00    	jmpq   *0x2043a2(%rip)        # 605018 <strcasecmp@GLIBC_2.2.5>
  400c76:	68 00 00 00 00       	pushq  $0x0
  400c7b:	e9 e0 ff ff ff       	jmpq   400c60 <.plt>

0000000000400c80 <__errno_location@plt>:
  400c80:	ff 25 9a 43 20 00    	jmpq   *0x20439a(%rip)        # 605020 <__errno_location@GLIBC_2.2.5>
  400c86:	68 01 00 00 00       	pushq  $0x1
  400c8b:	e9 d0 ff ff ff       	jmpq   400c60 <.plt>

0000000000400c90 <srandom@plt>:
  400c90:	ff 25 92 43 20 00    	jmpq   *0x204392(%rip)        # 605028 <srandom@GLIBC_2.2.5>
  400c96:	68 02 00 00 00       	pushq  $0x2
  400c9b:	e9 c0 ff ff ff       	jmpq   400c60 <.plt>

0000000000400ca0 <strncmp@plt>:
  400ca0:	ff 25 8a 43 20 00    	jmpq   *0x20438a(%rip)        # 605030 <strncmp@GLIBC_2.2.5>
  400ca6:	68 03 00 00 00       	pushq  $0x3
  400cab:	e9 b0 ff ff ff       	jmpq   400c60 <.plt>

0000000000400cb0 <strcpy@plt>:
  400cb0:	ff 25 82 43 20 00    	jmpq   *0x204382(%rip)        # 605038 <strcpy@GLIBC_2.2.5>
  400cb6:	68 04 00 00 00       	pushq  $0x4
  400cbb:	e9 a0 ff ff ff       	jmpq   400c60 <.plt>

0000000000400cc0 <puts@plt>:
  400cc0:	ff 25 7a 43 20 00    	jmpq   *0x20437a(%rip)        # 605040 <puts@GLIBC_2.2.5>
  400cc6:	68 05 00 00 00       	pushq  $0x5
  400ccb:	e9 90 ff ff ff       	jmpq   400c60 <.plt>

0000000000400cd0 <write@plt>:
  400cd0:	ff 25 72 43 20 00    	jmpq   *0x204372(%rip)        # 605048 <write@GLIBC_2.2.5>
  400cd6:	68 06 00 00 00       	pushq  $0x6
  400cdb:	e9 80 ff ff ff       	jmpq   400c60 <.plt>

0000000000400ce0 <__stack_chk_fail@plt>:
  400ce0:	ff 25 6a 43 20 00    	jmpq   *0x20436a(%rip)        # 605050 <__stack_chk_fail@GLIBC_2.4>
  400ce6:	68 07 00 00 00       	pushq  $0x7
  400ceb:	e9 70 ff ff ff       	jmpq   400c60 <.plt>

0000000000400cf0 <mmap@plt>:
  400cf0:	ff 25 62 43 20 00    	jmpq   *0x204362(%rip)        # 605058 <mmap@GLIBC_2.2.5>
  400cf6:	68 08 00 00 00       	pushq  $0x8
  400cfb:	e9 60 ff ff ff       	jmpq   400c60 <.plt>

0000000000400d00 <memset@plt>:
  400d00:	ff 25 5a 43 20 00    	jmpq   *0x20435a(%rip)        # 605060 <memset@GLIBC_2.2.5>
  400d06:	68 09 00 00 00       	pushq  $0x9
  400d0b:	e9 50 ff ff ff       	jmpq   400c60 <.plt>

0000000000400d10 <alarm@plt>:
  400d10:	ff 25 52 43 20 00    	jmpq   *0x204352(%rip)        # 605068 <alarm@GLIBC_2.2.5>
  400d16:	68 0a 00 00 00       	pushq  $0xa
  400d1b:	e9 40 ff ff ff       	jmpq   400c60 <.plt>

0000000000400d20 <close@plt>:
  400d20:	ff 25 4a 43 20 00    	jmpq   *0x20434a(%rip)        # 605070 <close@GLIBC_2.2.5>
  400d26:	68 0b 00 00 00       	pushq  $0xb
  400d2b:	e9 30 ff ff ff       	jmpq   400c60 <.plt>

0000000000400d30 <read@plt>:
  400d30:	ff 25 42 43 20 00    	jmpq   *0x204342(%rip)        # 605078 <read@GLIBC_2.2.5>
  400d36:	68 0c 00 00 00       	pushq  $0xc
  400d3b:	e9 20 ff ff ff       	jmpq   400c60 <.plt>

0000000000400d40 <signal@plt>:
  400d40:	ff 25 3a 43 20 00    	jmpq   *0x20433a(%rip)        # 605080 <signal@GLIBC_2.2.5>
  400d46:	68 0d 00 00 00       	pushq  $0xd
  400d4b:	e9 10 ff ff ff       	jmpq   400c60 <.plt>

0000000000400d50 <gethostbyname@plt>:
  400d50:	ff 25 32 43 20 00    	jmpq   *0x204332(%rip)        # 605088 <gethostbyname@GLIBC_2.2.5>
  400d56:	68 0e 00 00 00       	pushq  $0xe
  400d5b:	e9 00 ff ff ff       	jmpq   400c60 <.plt>

0000000000400d60 <__memmove_chk@plt>:
  400d60:	ff 25 2a 43 20 00    	jmpq   *0x20432a(%rip)        # 605090 <__memmove_chk@GLIBC_2.3.4>
  400d66:	68 0f 00 00 00       	pushq  $0xf
  400d6b:	e9 f0 fe ff ff       	jmpq   400c60 <.plt>

0000000000400d70 <strtol@plt>:
  400d70:	ff 25 22 43 20 00    	jmpq   *0x204322(%rip)        # 605098 <strtol@GLIBC_2.2.5>
  400d76:	68 10 00 00 00       	pushq  $0x10
  400d7b:	e9 e0 fe ff ff       	jmpq   400c60 <.plt>

0000000000400d80 <memcpy@plt>:
  400d80:	ff 25 1a 43 20 00    	jmpq   *0x20431a(%rip)        # 6050a0 <memcpy@GLIBC_2.14>
  400d86:	68 11 00 00 00       	pushq  $0x11
  400d8b:	e9 d0 fe ff ff       	jmpq   400c60 <.plt>

0000000000400d90 <time@plt>:
  400d90:	ff 25 12 43 20 00    	jmpq   *0x204312(%rip)        # 6050a8 <time@GLIBC_2.2.5>
  400d96:	68 12 00 00 00       	pushq  $0x12
  400d9b:	e9 c0 fe ff ff       	jmpq   400c60 <.plt>

0000000000400da0 <random@plt>:
  400da0:	ff 25 0a 43 20 00    	jmpq   *0x20430a(%rip)        # 6050b0 <random@GLIBC_2.2.5>
  400da6:	68 13 00 00 00       	pushq  $0x13
  400dab:	e9 b0 fe ff ff       	jmpq   400c60 <.plt>

0000000000400db0 <_IO_getc@plt>:
  400db0:	ff 25 02 43 20 00    	jmpq   *0x204302(%rip)        # 6050b8 <_IO_getc@GLIBC_2.2.5>
  400db6:	68 14 00 00 00       	pushq  $0x14
  400dbb:	e9 a0 fe ff ff       	jmpq   400c60 <.plt>

0000000000400dc0 <__isoc99_sscanf@plt>:
  400dc0:	ff 25 fa 42 20 00    	jmpq   *0x2042fa(%rip)        # 6050c0 <__isoc99_sscanf@GLIBC_2.7>
  400dc6:	68 15 00 00 00       	pushq  $0x15
  400dcb:	e9 90 fe ff ff       	jmpq   400c60 <.plt>

0000000000400dd0 <munmap@plt>:
  400dd0:	ff 25 f2 42 20 00    	jmpq   *0x2042f2(%rip)        # 6050c8 <munmap@GLIBC_2.2.5>
  400dd6:	68 16 00 00 00       	pushq  $0x16
  400ddb:	e9 80 fe ff ff       	jmpq   400c60 <.plt>

0000000000400de0 <__printf_chk@plt>:
  400de0:	ff 25 ea 42 20 00    	jmpq   *0x2042ea(%rip)        # 6050d0 <__printf_chk@GLIBC_2.3.4>
  400de6:	68 17 00 00 00       	pushq  $0x17
  400deb:	e9 70 fe ff ff       	jmpq   400c60 <.plt>

0000000000400df0 <fopen@plt>:
  400df0:	ff 25 e2 42 20 00    	jmpq   *0x2042e2(%rip)        # 6050d8 <fopen@GLIBC_2.2.5>
  400df6:	68 18 00 00 00       	pushq  $0x18
  400dfb:	e9 60 fe ff ff       	jmpq   400c60 <.plt>

0000000000400e00 <getopt@plt>:
  400e00:	ff 25 da 42 20 00    	jmpq   *0x2042da(%rip)        # 6050e0 <getopt@GLIBC_2.2.5>
  400e06:	68 19 00 00 00       	pushq  $0x19
  400e0b:	e9 50 fe ff ff       	jmpq   400c60 <.plt>

0000000000400e10 <strtoul@plt>:
  400e10:	ff 25 d2 42 20 00    	jmpq   *0x2042d2(%rip)        # 6050e8 <strtoul@GLIBC_2.2.5>
  400e16:	68 1a 00 00 00       	pushq  $0x1a
  400e1b:	e9 40 fe ff ff       	jmpq   400c60 <.plt>

0000000000400e20 <gethostname@plt>:
  400e20:	ff 25 ca 42 20 00    	jmpq   *0x2042ca(%rip)        # 6050f0 <gethostname@GLIBC_2.2.5>
  400e26:	68 1b 00 00 00       	pushq  $0x1b
  400e2b:	e9 30 fe ff ff       	jmpq   400c60 <.plt>

0000000000400e30 <exit@plt>:
  400e30:	ff 25 c2 42 20 00    	jmpq   *0x2042c2(%rip)        # 6050f8 <exit@GLIBC_2.2.5>
  400e36:	68 1c 00 00 00       	pushq  $0x1c
  400e3b:	e9 20 fe ff ff       	jmpq   400c60 <.plt>

0000000000400e40 <connect@plt>:
  400e40:	ff 25 ba 42 20 00    	jmpq   *0x2042ba(%rip)        # 605100 <connect@GLIBC_2.2.5>
  400e46:	68 1d 00 00 00       	pushq  $0x1d
  400e4b:	e9 10 fe ff ff       	jmpq   400c60 <.plt>

0000000000400e50 <__fprintf_chk@plt>:
  400e50:	ff 25 b2 42 20 00    	jmpq   *0x2042b2(%rip)        # 605108 <__fprintf_chk@GLIBC_2.3.4>
  400e56:	68 1e 00 00 00       	pushq  $0x1e
  400e5b:	e9 00 fe ff ff       	jmpq   400c60 <.plt>

0000000000400e60 <__sprintf_chk@plt>:
  400e60:	ff 25 aa 42 20 00    	jmpq   *0x2042aa(%rip)        # 605110 <__sprintf_chk@GLIBC_2.3.4>
  400e66:	68 1f 00 00 00       	pushq  $0x1f
  400e6b:	e9 f0 fd ff ff       	jmpq   400c60 <.plt>

0000000000400e70 <socket@plt>:
  400e70:	ff 25 a2 42 20 00    	jmpq   *0x2042a2(%rip)        # 605118 <socket@GLIBC_2.2.5>
  400e76:	68 20 00 00 00       	pushq  $0x20
  400e7b:	e9 e0 fd ff ff       	jmpq   400c60 <.plt>

Disassembly of section .text:

0000000000400e80 <_start>:
  400e80:	31 ed                	xor    %ebp,%ebp
  400e82:	49 89 d1             	mov    %rdx,%r9
  400e85:	5e                   	pop    %rsi
  400e86:	48 89 e2             	mov    %rsp,%rdx
  400e89:	48 83 e4 f0          	and    $0xfffffffffffffff0,%rsp
  400e8d:	50                   	push   %rax
  400e8e:	54                   	push   %rsp
  400e8f:	49 c7 c0 20 30 40 00 	mov    $0x403020,%r8
  400e96:	48 c7 c1 b0 2f 40 00 	mov    $0x402fb0,%rcx
  400e9d:	48 c7 c7 73 11 40 00 	mov    $0x401173,%rdi
  400ea4:	ff 15 46 41 20 00    	callq  *0x204146(%rip)        # 604ff0 <__libc_start_main@GLIBC_2.2.5>
  400eaa:	f4                   	hlt    
  400eab:	0f 1f 44 00 00       	nopl   0x0(%rax,%rax,1)

0000000000400eb0 <_dl_relocate_static_pie>:
  400eb0:	f3 c3                	repz retq 
  400eb2:	66 2e 0f 1f 84 00 00 	nopw   %cs:0x0(%rax,%rax,1)
  400eb9:	00 00 00 
  400ebc:	0f 1f 40 00          	nopl   0x0(%rax)

0000000000400ec0 <deregister_tm_clones>:
  400ec0:	55                   	push   %rbp
  400ec1:	b8 90 54 60 00       	mov    $0x605490,%eax
  400ec6:	48 3d 90 54 60 00    	cmp    $0x605490,%rax
  400ecc:	48 89 e5             	mov    %rsp,%rbp
  400ecf:	74 17                	je     400ee8 <deregister_tm_clones+0x28>
  400ed1:	b8 00 00 00 00       	mov    $0x0,%eax
  400ed6:	48 85 c0             	test   %rax,%rax
  400ed9:	74 0d                	je     400ee8 <deregister_tm_clones+0x28>
  400edb:	5d                   	pop    %rbp
  400edc:	bf 90 54 60 00       	mov    $0x605490,%edi
  400ee1:	ff e0                	jmpq   *%rax
  400ee3:	0f 1f 44 00 00       	nopl   0x0(%rax,%rax,1)
  400ee8:	5d                   	pop    %rbp
  400ee9:	c3                   	retq   
  400eea:	66 0f 1f 44 00 00    	nopw   0x0(%rax,%rax,1)

0000000000400ef0 <register_tm_clones>:
  400ef0:	be 90 54 60 00       	mov    $0x605490,%esi
  400ef5:	55                   	push   %rbp
  400ef6:	48 81 ee 90 54 60 00 	sub    $0x605490,%rsi
  400efd:	48 89 e5             	mov    %rsp,%rbp
  400f00:	48 c1 fe 03          	sar    $0x3,%rsi
  400f04:	48 89 f0             	mov    %rsi,%rax
  400f07:	48 c1 e8 3f          	shr    $0x3f,%rax
  400f0b:	48 01 c6             	add    %rax,%rsi
  400f0e:	48 d1 fe             	sar    %rsi
  400f11:	74 15                	je     400f28 <register_tm_clones+0x38>
  400f13:	b8 00 00 00 00       	mov    $0x0,%eax
  400f18:	48 85 c0             	test   %rax,%rax
  400f1b:	74 0b                	je     400f28 <register_tm_clones+0x38>
  400f1d:	5d                   	pop    %rbp
  400f1e:	bf 90 54 60 00       	mov    $0x605490,%edi
  400f23:	ff e0                	jmpq   *%rax
  400f25:	0f 1f 00             	nopl   (%rax)
  400f28:	5d                   	pop    %rbp
  400f29:	c3                   	retq   
  400f2a:	66 0f 1f 44 00 00    	nopw   0x0(%rax,%rax,1)

0000000000400f30 <__do_global_dtors_aux>:
  400f30:	80 3d 91 45 20 00 00 	cmpb   $0x0,0x204591(%rip)        # 6054c8 <completed.7697>
  400f37:	75 17                	jne    400f50 <__do_global_dtors_aux+0x20>
  400f39:	55                   	push   %rbp
  400f3a:	48 89 e5             	mov    %rsp,%rbp
  400f3d:	e8 7e ff ff ff       	callq  400ec0 <deregister_tm_clones>
  400f42:	c6 05 7f 45 20 00 01 	movb   $0x1,0x20457f(%rip)        # 6054c8 <completed.7697>
  400f49:	5d                   	pop    %rbp
  400f4a:	c3                   	retq   
  400f4b:	0f 1f 44 00 00       	nopl   0x0(%rax,%rax,1)
  400f50:	f3 c3                	repz retq 
  400f52:	0f 1f 40 00          	nopl   0x0(%rax)
  400f56:	66 2e 0f 1f 84 00 00 	nopw   %cs:0x0(%rax,%rax,1)
  400f5d:	00 00 00 

0000000000400f60 <frame_dummy>:
  400f60:	55                   	push   %rbp
  400f61:	48 89 e5             	mov    %rsp,%rbp
  400f64:	5d                   	pop    %rbp
  400f65:	eb 89                	jmp    400ef0 <register_tm_clones>

0000000000400f67 <usage>:
  400f67:	48 83 ec 08          	sub    $0x8,%rsp
  400f6b:	48 89 fa             	mov    %rdi,%rdx
  400f6e:	83 3d 93 45 20 00 00 	cmpl   $0x0,0x204593(%rip)        # 605508 <is_checker>
  400f75:	74 46                	je     400fbd <usage+0x56>
  400f77:	be 38 30 40 00       	mov    $0x403038,%esi
  400f7c:	bf 01 00 00 00       	mov    $0x1,%edi
  400f81:	b8 00 00 00 00       	mov    $0x0,%eax
  400f86:	e8 55 fe ff ff       	callq  400de0 <__printf_chk@plt>
  400f8b:	bf 70 30 40 00       	mov    $0x403070,%edi
  400f90:	e8 2b fd ff ff       	callq  400cc0 <puts@plt>
  400f95:	bf e8 31 40 00       	mov    $0x4031e8,%edi
  400f9a:	e8 21 fd ff ff       	callq  400cc0 <puts@plt>
  400f9f:	bf 98 30 40 00       	mov    $0x403098,%edi
  400fa4:	e8 17 fd ff ff       	callq  400cc0 <puts@plt>
  400fa9:	bf 02 32 40 00       	mov    $0x403202,%edi
  400fae:	e8 0d fd ff ff       	callq  400cc0 <puts@plt>
  400fb3:	bf 00 00 00 00       	mov    $0x0,%edi
  400fb8:	e8 73 fe ff ff       	callq  400e30 <exit@plt>
  400fbd:	be 1e 32 40 00       	mov    $0x40321e,%esi
  400fc2:	bf 01 00 00 00       	mov    $0x1,%edi
  400fc7:	b8 00 00 00 00       	mov    $0x0,%eax
  400fcc:	e8 0f fe ff ff       	callq  400de0 <__printf_chk@plt>
  400fd1:	bf c0 30 40 00       	mov    $0x4030c0,%edi
  400fd6:	e8 e5 fc ff ff       	callq  400cc0 <puts@plt>
  400fdb:	bf e8 30 40 00       	mov    $0x4030e8,%edi
  400fe0:	e8 db fc ff ff       	callq  400cc0 <puts@plt>
  400fe5:	bf 3c 32 40 00       	mov    $0x40323c,%edi
  400fea:	e8 d1 fc ff ff       	callq  400cc0 <puts@plt>
  400fef:	eb c2                	jmp    400fb3 <usage+0x4c>

0000000000400ff1 <initialize_target>:
  400ff1:	55                   	push   %rbp
  400ff2:	53                   	push   %rbx
  400ff3:	48 81 ec 18 21 00 00 	sub    $0x2118,%rsp
  400ffa:	89 f5                	mov    %esi,%ebp
  400ffc:	64 48 8b 04 25 28 00 	mov    %fs:0x28,%rax
  401003:	00 00 
  401005:	48 89 84 24 08 21 00 	mov    %rax,0x2108(%rsp)
  40100c:	00 
  40100d:	31 c0                	xor    %eax,%eax
  40100f:	89 3d e3 44 20 00    	mov    %edi,0x2044e3(%rip)        # 6054f8 <check_level>
  401015:	8b 3d 2d 41 20 00    	mov    0x20412d(%rip),%edi        # 605148 <target_id>
  40101b:	e8 66 1f 00 00       	callq  402f86 <gencookie>
  401020:	89 05 de 44 20 00    	mov    %eax,0x2044de(%rip)        # 605504 <cookie>
  401026:	89 c7                	mov    %eax,%edi
  401028:	e8 59 1f 00 00       	callq  402f86 <gencookie>
  40102d:	89 05 cd 44 20 00    	mov    %eax,0x2044cd(%rip)        # 605500 <authkey>
  401033:	8b 05 0f 41 20 00    	mov    0x20410f(%rip),%eax        # 605148 <target_id>
  401039:	8d 78 01             	lea    0x1(%rax),%edi
  40103c:	e8 4f fc ff ff       	callq  400c90 <srandom@plt>
  401041:	e8 5a fd ff ff       	callq  400da0 <random@plt>
  401046:	89 c7                	mov    %eax,%edi
  401048:	e8 f2 02 00 00       	callq  40133f <scramble>
  40104d:	89 c3                	mov    %eax,%ebx
  40104f:	85 ed                	test   %ebp,%ebp
  401051:	75 54                	jne    4010a7 <initialize_target+0xb6>
  401053:	b8 00 00 00 00       	mov    $0x0,%eax
  401058:	01 d8                	add    %ebx,%eax
  40105a:	0f b7 c0             	movzwl %ax,%eax
  40105d:	8d 04 c5 00 01 00 00 	lea    0x100(,%rax,8),%eax
  401064:	89 c0                	mov    %eax,%eax
  401066:	48 89 05 13 44 20 00 	mov    %rax,0x204413(%rip)        # 605480 <buf_offset>
  40106d:	c6 05 b4 50 20 00 72 	movb   $0x72,0x2050b4(%rip)        # 606128 <target_prefix>
  401074:	83 3d 0d 44 20 00 00 	cmpl   $0x0,0x20440d(%rip)        # 605488 <notify>
  40107b:	74 09                	je     401086 <initialize_target+0x95>
  40107d:	83 3d 84 44 20 00 00 	cmpl   $0x0,0x204484(%rip)        # 605508 <is_checker>
  401084:	74 39                	je     4010bf <initialize_target+0xce>
  401086:	48 8b 84 24 08 21 00 	mov    0x2108(%rsp),%rax
  40108d:	00 
  40108e:	64 48 33 04 25 28 00 	xor    %fs:0x28,%rax
  401095:	00 00 
  401097:	0f 85 d1 00 00 00    	jne    40116e <initialize_target+0x17d>
  40109d:	48 81 c4 18 21 00 00 	add    $0x2118,%rsp
  4010a4:	5b                   	pop    %rbx
  4010a5:	5d                   	pop    %rbp
  4010a6:	c3                   	retq   
  4010a7:	bf 00 00 00 00       	mov    $0x0,%edi
  4010ac:	e8 df fc ff ff       	callq  400d90 <time@plt>
  4010b1:	89 c7                	mov    %eax,%edi
  4010b3:	e8 d8 fb ff ff       	callq  400c90 <srandom@plt>
  4010b8:	e8 e3 fc ff ff       	callq  400da0 <random@plt>
  4010bd:	eb 99                	jmp    401058 <initialize_target+0x67>
  4010bf:	be 00 01 00 00       	mov    $0x100,%esi
  4010c4:	48 89 e7             	mov    %rsp,%rdi
  4010c7:	e8 54 fd ff ff       	callq  400e20 <gethostname@plt>
  4010cc:	89 c5                	mov    %eax,%ebp
  4010ce:	85 c0                	test   %eax,%eax
  4010d0:	75 23                	jne    4010f5 <initialize_target+0x104>
  4010d2:	89 c3                	mov    %eax,%ebx
  4010d4:	48 63 c3             	movslq %ebx,%rax
  4010d7:	48 8b 3c c5 60 51 60 	mov    0x605160(,%rax,8),%rdi
  4010de:	00 
  4010df:	48 85 ff             	test   %rdi,%rdi
  4010e2:	74 2a                	je     40110e <initialize_target+0x11d>
  4010e4:	48 89 e6             	mov    %rsp,%rsi
  4010e7:	e8 84 fb ff ff       	callq  400c70 <strcasecmp@plt>
  4010ec:	85 c0                	test   %eax,%eax
  4010ee:	74 19                	je     401109 <initialize_target+0x118>
  4010f0:	83 c3 01             	add    $0x1,%ebx
  4010f3:	eb df                	jmp    4010d4 <initialize_target+0xe3>
  4010f5:	bf 18 31 40 00       	mov    $0x403118,%edi
  4010fa:	e8 c1 fb ff ff       	callq  400cc0 <puts@plt>
  4010ff:	bf 08 00 00 00       	mov    $0x8,%edi
  401104:	e8 27 fd ff ff       	callq  400e30 <exit@plt>
  401109:	bd 01 00 00 00       	mov    $0x1,%ebp
  40110e:	85 ed                	test   %ebp,%ebp
  401110:	74 3b                	je     40114d <initialize_target+0x15c>
  401112:	48 8d bc 24 00 01 00 	lea    0x100(%rsp),%rdi
  401119:	00 
  40111a:	e8 bc 1b 00 00       	callq  402cdb <init_driver>
  40111f:	85 c0                	test   %eax,%eax
  401121:	0f 89 5f ff ff ff    	jns    401086 <initialize_target+0x95>
  401127:	48 8d 94 24 00 01 00 	lea    0x100(%rsp),%rdx
  40112e:	00 
  40112f:	be 90 31 40 00       	mov    $0x403190,%esi
  401134:	bf 01 00 00 00       	mov    $0x1,%edi
  401139:	b8 00 00 00 00       	mov    $0x0,%eax
  40113e:	e8 9d fc ff ff       	callq  400de0 <__printf_chk@plt>
  401143:	bf 08 00 00 00       	mov    $0x8,%edi
  401148:	e8 e3 fc ff ff       	callq  400e30 <exit@plt>
  40114d:	48 89 e2             	mov    %rsp,%rdx
  401150:	be 50 31 40 00       	mov    $0x403150,%esi
  401155:	bf 01 00 00 00       	mov    $0x1,%edi
  40115a:	b8 00 00 00 00       	mov    $0x0,%eax
  40115f:	e8 7c fc ff ff       	callq  400de0 <__printf_chk@plt>
  401164:	bf 08 00 00 00       	mov    $0x8,%edi
  401169:	e8 c2 fc ff ff       	callq  400e30 <exit@plt>
  40116e:	e8 6d fb ff ff       	callq  400ce0 <__stack_chk_fail@plt>

0000000000401173 <main>:
  401173:	41 56                	push   %r14
  401175:	41 55                	push   %r13
  401177:	41 54                	push   %r12
  401179:	55                   	push   %rbp
  40117a:	53                   	push   %rbx
  40117b:	41 89 fc             	mov    %edi,%r12d
  40117e:	48 89 f3             	mov    %rsi,%rbx
  401181:	be 18 20 40 00       	mov    $0x402018,%esi
  401186:	bf 0b 00 00 00       	mov    $0xb,%edi
  40118b:	e8 b0 fb ff ff       	callq  400d40 <signal@plt>
  401190:	be ca 1f 40 00       	mov    $0x401fca,%esi
  401195:	bf 07 00 00 00       	mov    $0x7,%edi
  40119a:	e8 a1 fb ff ff       	callq  400d40 <signal@plt>
  40119f:	be 66 20 40 00       	mov    $0x402066,%esi
  4011a4:	bf 04 00 00 00       	mov    $0x4,%edi
  4011a9:	e8 92 fb ff ff       	callq  400d40 <signal@plt>
  4011ae:	83 3d 53 43 20 00 00 	cmpl   $0x0,0x204353(%rip)        # 605508 <is_checker>
  4011b5:	75 24                	jne    4011db <main+0x68>
  4011b7:	bd 55 32 40 00       	mov    $0x403255,%ebp
  4011bc:	48 8b 05 dd 42 20 00 	mov    0x2042dd(%rip),%rax        # 6054a0 <stdin@@GLIBC_2.2.5>
  4011c3:	48 89 05 26 43 20 00 	mov    %rax,0x204326(%rip)        # 6054f0 <infile>
  4011ca:	41 bd 00 00 00 00    	mov    $0x0,%r13d
  4011d0:	41 be 00 00 00 00    	mov    $0x0,%r14d
  4011d6:	e9 85 00 00 00       	jmpq   401260 <main+0xed>
  4011db:	be b4 20 40 00       	mov    $0x4020b4,%esi
  4011e0:	bf 0e 00 00 00       	mov    $0xe,%edi
  4011e5:	e8 56 fb ff ff       	callq  400d40 <signal@plt>
  4011ea:	bf 05 00 00 00       	mov    $0x5,%edi
  4011ef:	e8 1c fb ff ff       	callq  400d10 <alarm@plt>
  4011f4:	bd 5a 32 40 00       	mov    $0x40325a,%ebp
  4011f9:	eb c1                	jmp    4011bc <main+0x49>
  4011fb:	48 8b 3b             	mov    (%rbx),%rdi
  4011fe:	e8 64 fd ff ff       	callq  400f67 <usage>
  401203:	be 05 35 40 00       	mov    $0x403505,%esi
  401208:	48 8b 3d 99 42 20 00 	mov    0x204299(%rip),%rdi        # 6054a8 <optarg@@GLIBC_2.2.5>
  40120f:	e8 dc fb ff ff       	callq  400df0 <fopen@plt>
  401214:	48 89 05 d5 42 20 00 	mov    %rax,0x2042d5(%rip)        # 6054f0 <infile>
  40121b:	48 85 c0             	test   %rax,%rax
  40121e:	75 40                	jne    401260 <main+0xed>
  401220:	48 8b 0d 81 42 20 00 	mov    0x204281(%rip),%rcx        # 6054a8 <optarg@@GLIBC_2.2.5>
  401227:	ba 62 32 40 00       	mov    $0x403262,%edx
  40122c:	be 01 00 00 00       	mov    $0x1,%esi
  401231:	48 8b 3d 88 42 20 00 	mov    0x204288(%rip),%rdi        # 6054c0 <stderr@@GLIBC_2.2.5>
  401238:	e8 13 fc ff ff       	callq  400e50 <__fprintf_chk@plt>
  40123d:	b8 01 00 00 00       	mov    $0x1,%eax
  401242:	e9 cc 00 00 00       	jmpq   401313 <main+0x1a0>
  401247:	ba 10 00 00 00       	mov    $0x10,%edx
  40124c:	be 00 00 00 00       	mov    $0x0,%esi
  401251:	48 8b 3d 50 42 20 00 	mov    0x204250(%rip),%rdi        # 6054a8 <optarg@@GLIBC_2.2.5>
  401258:	e8 b3 fb ff ff       	callq  400e10 <strtoul@plt>
  40125d:	41 89 c6             	mov    %eax,%r14d
  401260:	48 89 ea             	mov    %rbp,%rdx
  401263:	48 89 de             	mov    %rbx,%rsi
  401266:	44 89 e7             	mov    %r12d,%edi
  401269:	e8 92 fb ff ff       	callq  400e00 <getopt@plt>
  40126e:	3c ff                	cmp    $0xff,%al
  401270:	74 57                	je     4012c9 <main+0x156>
  401272:	0f be d0             	movsbl %al,%edx
  401275:	83 e8 61             	sub    $0x61,%eax
  401278:	3c 10                	cmp    $0x10,%al
  40127a:	77 31                	ja     4012ad <main+0x13a>
  40127c:	0f b6 c0             	movzbl %al,%eax
  40127f:	ff 24 c5 a0 32 40 00 	jmpq   *0x4032a0(,%rax,8)
  401286:	ba 0a 00 00 00       	mov    $0xa,%edx
  40128b:	be 00 00 00 00       	mov    $0x0,%esi
  401290:	48 8b 3d 11 42 20 00 	mov    0x204211(%rip),%rdi        # 6054a8 <optarg@@GLIBC_2.2.5>
  401297:	e8 d4 fa ff ff       	callq  400d70 <strtol@plt>
  40129c:	41 89 c5             	mov    %eax,%r13d
  40129f:	eb bf                	jmp    401260 <main+0xed>
  4012a1:	c7 05 dd 41 20 00 00 	movl   $0x0,0x2041dd(%rip)        # 605488 <notify>
  4012a8:	00 00 00 
  4012ab:	eb b3                	jmp    401260 <main+0xed>
  4012ad:	be 7f 32 40 00       	mov    $0x40327f,%esi
  4012b2:	bf 01 00 00 00       	mov    $0x1,%edi
  4012b7:	b8 00 00 00 00       	mov    $0x0,%eax
  4012bc:	e8 1f fb ff ff       	callq  400de0 <__printf_chk@plt>
  4012c1:	48 8b 3b             	mov    (%rbx),%rdi
  4012c4:	e8 9e fc ff ff       	callq  400f67 <usage>
  4012c9:	be 01 00 00 00       	mov    $0x1,%esi
  4012ce:	44 89 ef             	mov    %r13d,%edi
  4012d1:	e8 1b fd ff ff       	callq  400ff1 <initialize_target>
  4012d6:	83 3d 2b 42 20 00 00 	cmpl   $0x0,0x20422b(%rip)        # 605508 <is_checker>
  4012dd:	74 09                	je     4012e8 <main+0x175>
  4012df:	44 39 35 1a 42 20 00 	cmp    %r14d,0x20421a(%rip)        # 605500 <authkey>
  4012e6:	75 34                	jne    40131c <main+0x1a9>
  4012e8:	8b 15 16 42 20 00    	mov    0x204216(%rip),%edx        # 605504 <cookie>
  4012ee:	be 92 32 40 00       	mov    $0x403292,%esi
  4012f3:	bf 01 00 00 00       	mov    $0x1,%edi
  4012f8:	b8 00 00 00 00       	mov    $0x0,%eax
  4012fd:	e8 de fa ff ff       	callq  400de0 <__printf_chk@plt>
  401302:	48 8b 3d 77 41 20 00 	mov    0x204177(%rip),%rdi        # 605480 <buf_offset>
  401309:	e8 f9 0d 00 00       	callq  402107 <launch>
  40130e:	b8 00 00 00 00       	mov    $0x0,%eax
  401313:	5b                   	pop    %rbx
  401314:	5d                   	pop    %rbp
  401315:	41 5c                	pop    %r12
  401317:	41 5d                	pop    %r13
  401319:	41 5e                	pop    %r14
  40131b:	c3                   	retq   
  40131c:	44 89 f2             	mov    %r14d,%edx
  40131f:	be b8 31 40 00       	mov    $0x4031b8,%esi
  401324:	bf 01 00 00 00       	mov    $0x1,%edi
  401329:	b8 00 00 00 00       	mov    $0x0,%eax
  40132e:	e8 ad fa ff ff       	callq  400de0 <__printf_chk@plt>
  401333:	b8 00 00 00 00       	mov    $0x0,%eax
  401338:	e8 16 09 00 00       	callq  401c53 <check_fail>
  40133d:	eb a9                	jmp    4012e8 <main+0x175>

000000000040133f <scramble>:
  40133f:	48 83 ec 38          	sub    $0x38,%rsp
  401343:	64 48 8b 04 25 28 00 	mov    %fs:0x28,%rax
  40134a:	00 00 
  40134c:	48 89 44 24 28       	mov    %rax,0x28(%rsp)
  401351:	31 c0                	xor    %eax,%eax
  401353:	eb 10                	jmp    401365 <scramble+0x26>
  401355:	69 d0 ae 3e 00 00    	imul   $0x3eae,%eax,%edx
  40135b:	01 fa                	add    %edi,%edx
  40135d:	89 c1                	mov    %eax,%ecx
  40135f:	89 14 8c             	mov    %edx,(%rsp,%rcx,4)
  401362:	83 c0 01             	add    $0x1,%eax
  401365:	83 f8 09             	cmp    $0x9,%eax
  401368:	76 eb                	jbe    401355 <scramble+0x16>
  40136a:	8b 04 24             	mov    (%rsp),%eax
  40136d:	69 c0 0b d3 00 00    	imul   $0xd30b,%eax,%eax
  401373:	89 04 24             	mov    %eax,(%rsp)
  401376:	8b 44 24 10          	mov    0x10(%rsp),%eax
  40137a:	69 c0 67 f7 00 00    	imul   $0xf767,%eax,%eax
  401380:	89 44 24 10          	mov    %eax,0x10(%rsp)
  401384:	8b 44 24 20          	mov    0x20(%rsp),%eax
  401388:	69 c0 58 02 00 00    	imul   $0x258,%eax,%eax
  40138e:	89 44 24 20          	mov    %eax,0x20(%rsp)
  401392:	8b 44 24 20          	mov    0x20(%rsp),%eax
  401396:	69 c0 93 b4 00 00    	imul   $0xb493,%eax,%eax
  40139c:	89 44 24 20          	mov    %eax,0x20(%rsp)
  4013a0:	8b 44 24 1c          	mov    0x1c(%rsp),%eax
  4013a4:	69 c0 42 1a 00 00    	imul   $0x1a42,%eax,%eax
  4013aa:	89 44 24 1c          	mov    %eax,0x1c(%rsp)
  4013ae:	8b 44 24 0c          	mov    0xc(%rsp),%eax
  4013b2:	69 c0 ec d8 00 00    	imul   $0xd8ec,%eax,%eax
  4013b8:	89 44 24 0c          	mov    %eax,0xc(%rsp)
  4013bc:	8b 44 24 18          	mov    0x18(%rsp),%eax
  4013c0:	69 c0 3d e1 00 00    	imul   $0xe13d,%eax,%eax
  4013c6:	89 44 24 18          	mov    %eax,0x18(%rsp)
  4013ca:	8b 04 24             	mov    (%rsp),%eax
  4013cd:	69 c0 f8 61 00 00    	imul   $0x61f8,%eax,%eax
  4013d3:	89 04 24             	mov    %eax,(%rsp)
  4013d6:	8b 44 24 0c          	mov    0xc(%rsp),%eax
  4013da:	69 c0 2a 9c 00 00    	imul   $0x9c2a,%eax,%eax
  4013e0:	89 44 24 0c          	mov    %eax,0xc(%rsp)
  4013e4:	8b 44 24 04          	mov    0x4(%rsp),%eax
  4013e8:	69 c0 bd fd 00 00    	imul   $0xfdbd,%eax,%eax
  4013ee:	89 44 24 04          	mov    %eax,0x4(%rsp)
  4013f2:	8b 44 24 24          	mov    0x24(%rsp),%eax
  4013f6:	69 c0 1a 99 00 00    	imul   $0x991a,%eax,%eax
  4013fc:	89 44 24 24          	mov    %eax,0x24(%rsp)
  401400:	8b 44 24 04          	mov    0x4(%rsp),%eax
  401404:	69 c0 84 18 00 00    	imul   $0x1884,%eax,%eax
  40140a:	89 44 24 04          	mov    %eax,0x4(%rsp)
  40140e:	8b 44 24 24          	mov    0x24(%rsp),%eax
  401412:	69 c0 d3 14 00 00    	imul   $0x14d3,%eax,%eax
  401418:	89 44 24 24          	mov    %eax,0x24(%rsp)
  40141c:	8b 04 24             	mov    (%rsp),%eax
  40141f:	69 c0 84 4c 00 00    	imul   $0x4c84,%eax,%eax
  401425:	89 04 24             	mov    %eax,(%rsp)
  401428:	8b 44 24 24          	mov    0x24(%rsp),%eax
  40142c:	69 c0 8f a9 00 00    	imul   $0xa98f,%eax,%eax
  401432:	89 44 24 24          	mov    %eax,0x24(%rsp)
  401436:	8b 44 24 10          	mov    0x10(%rsp),%eax
  40143a:	69 c0 f0 73 00 00    	imul   $0x73f0,%eax,%eax
  401440:	89 44 24 10          	mov    %eax,0x10(%rsp)
  401444:	8b 44 24 08          	mov    0x8(%rsp),%eax
  401448:	69 c0 39 3a 00 00    	imul   $0x3a39,%eax,%eax
  40144e:	89 44 24 08          	mov    %eax,0x8(%rsp)
  401452:	8b 44 24 0c          	mov    0xc(%rsp),%eax
  401456:	69 c0 11 77 00 00    	imul   $0x7711,%eax,%eax
  40145c:	89 44 24 0c          	mov    %eax,0xc(%rsp)
  401460:	8b 04 24             	mov    (%rsp),%eax
  401463:	69 c0 74 23 00 00    	imul   $0x2374,%eax,%eax
  401469:	89 04 24             	mov    %eax,(%rsp)
  40146c:	8b 44 24 20          	mov    0x20(%rsp),%eax
  401470:	69 c0 8d 1f 00 00    	imul   $0x1f8d,%eax,%eax
  401476:	89 44 24 20          	mov    %eax,0x20(%rsp)
  40147a:	8b 44 24 14          	mov    0x14(%rsp),%eax
  40147e:	69 c0 7d ce 00 00    	imul   $0xce7d,%eax,%eax
  401484:	89 44 24 14          	mov    %eax,0x14(%rsp)
  401488:	8b 44 24 10          	mov    0x10(%rsp),%eax
  40148c:	69 c0 8c d1 00 00    	imul   $0xd18c,%eax,%eax
  401492:	89 44 24 10          	mov    %eax,0x10(%rsp)
  401496:	8b 44 24 10          	mov    0x10(%rsp),%eax
  40149a:	69 c0 8b fe 00 00    	imul   $0xfe8b,%eax,%eax
  4014a0:	89 44 24 10          	mov    %eax,0x10(%rsp)
  4014a4:	8b 44 24 18          	mov    0x18(%rsp),%eax
  4014a8:	69 c0 2f a3 00 00    	imul   $0xa32f,%eax,%eax
  4014ae:	89 44 24 18          	mov    %eax,0x18(%rsp)
  4014b2:	8b 44 24 10          	mov    0x10(%rsp),%eax
  4014b6:	69 c0 a9 31 00 00    	imul   $0x31a9,%eax,%eax
  4014bc:	89 44 24 10          	mov    %eax,0x10(%rsp)
  4014c0:	8b 44 24 18          	mov    0x18(%rsp),%eax
  4014c4:	69 c0 8f d2 00 00    	imul   $0xd28f,%eax,%eax
  4014ca:	89 44 24 18          	mov    %eax,0x18(%rsp)
  4014ce:	8b 44 24 0c          	mov    0xc(%rsp),%eax
  4014d2:	69 c0 ab d4 00 00    	imul   $0xd4ab,%eax,%eax
  4014d8:	89 44 24 0c          	mov    %eax,0xc(%rsp)
  4014dc:	8b 44 24 10          	mov    0x10(%rsp),%eax
  4014e0:	69 c0 6b 8f 00 00    	imul   $0x8f6b,%eax,%eax
  4014e6:	89 44 24 10          	mov    %eax,0x10(%rsp)
  4014ea:	8b 44 24 08          	mov    0x8(%rsp),%eax
  4014ee:	69 c0 67 92 00 00    	imul   $0x9267,%eax,%eax
  4014f4:	89 44 24 08          	mov    %eax,0x8(%rsp)
  4014f8:	8b 44 24 08          	mov    0x8(%rsp),%eax
  4014fc:	69 c0 c0 1e 00 00    	imul   $0x1ec0,%eax,%eax
  401502:	89 44 24 08          	mov    %eax,0x8(%rsp)
  401506:	8b 44 24 14          	mov    0x14(%rsp),%eax
  40150a:	69 c0 bd b6 00 00    	imul   $0xb6bd,%eax,%eax
  401510:	89 44 24 14          	mov    %eax,0x14(%rsp)
  401514:	8b 44 24 10          	mov    0x10(%rsp),%eax
  401518:	69 c0 91 b8 00 00    	imul   $0xb891,%eax,%eax
  40151e:	89 44 24 10          	mov    %eax,0x10(%rsp)
  401522:	8b 04 24             	mov    (%rsp),%eax
  401525:	69 c0 09 fe 00 00    	imul   $0xfe09,%eax,%eax
  40152b:	89 04 24             	mov    %eax,(%rsp)
  40152e:	8b 44 24 24          	mov    0x24(%rsp),%eax
  401532:	69 c0 87 2d 00 00    	imul   $0x2d87,%eax,%eax
  401538:	89 44 24 24          	mov    %eax,0x24(%rsp)
  40153c:	8b 44 24 0c          	mov    0xc(%rsp),%eax
  401540:	69 c0 46 5b 00 00    	imul   $0x5b46,%eax,%eax
  401546:	89 44 24 0c          	mov    %eax,0xc(%rsp)
  40154a:	8b 44 24 04          	mov    0x4(%rsp),%eax
  40154e:	69 c0 33 5f 00 00    	imul   $0x5f33,%eax,%eax
  401554:	89 44 24 04          	mov    %eax,0x4(%rsp)
  401558:	8b 44 24 24          	mov    0x24(%rsp),%eax
  40155c:	69 c0 8e 45 00 00    	imul   $0x458e,%eax,%eax
  401562:	89 44 24 24          	mov    %eax,0x24(%rsp)
  401566:	8b 44 24 08          	mov    0x8(%rsp),%eax
  40156a:	69 c0 7d d9 00 00    	imul   $0xd97d,%eax,%eax
  401570:	89 44 24 08          	mov    %eax,0x8(%rsp)
  401574:	8b 44 24 10          	mov    0x10(%rsp),%eax
  401578:	69 c0 43 64 00 00    	imul   $0x6443,%eax,%eax
  40157e:	89 44 24 10          	mov    %eax,0x10(%rsp)
  401582:	8b 44 24 14          	mov    0x14(%rsp),%eax
  401586:	69 c0 d0 de 00 00    	imul   $0xded0,%eax,%eax
  40158c:	89 44 24 14          	mov    %eax,0x14(%rsp)
  401590:	8b 44 24 1c          	mov    0x1c(%rsp),%eax
  401594:	69 c0 98 1d 00 00    	imul   $0x1d98,%eax,%eax
  40159a:	89 44 24 1c          	mov    %eax,0x1c(%rsp)
  40159e:	8b 44 24 18          	mov    0x18(%rsp),%eax
  4015a2:	69 c0 b1 60 00 00    	imul   $0x60b1,%eax,%eax
  4015a8:	89 44 24 18          	mov    %eax,0x18(%rsp)
  4015ac:	8b 44 24 08          	mov    0x8(%rsp),%eax
  4015b0:	69 c0 73 9c 00 00    	imul   $0x9c73,%eax,%eax
  4015b6:	89 44 24 08          	mov    %eax,0x8(%rsp)
  4015ba:	8b 44 24 18          	mov    0x18(%rsp),%eax
  4015be:	69 c0 c2 db 00 00    	imul   $0xdbc2,%eax,%eax
  4015c4:	89 44 24 18          	mov    %eax,0x18(%rsp)
  4015c8:	8b 44 24 14          	mov    0x14(%rsp),%eax
  4015cc:	69 c0 0c cc 00 00    	imul   $0xcc0c,%eax,%eax
  4015d2:	89 44 24 14          	mov    %eax,0x14(%rsp)
  4015d6:	8b 44 24 24          	mov    0x24(%rsp),%eax
  4015da:	69 c0 d0 6a 00 00    	imul   $0x6ad0,%eax,%eax
  4015e0:	89 44 24 24          	mov    %eax,0x24(%rsp)
  4015e4:	8b 44 24 24          	mov    0x24(%rsp),%eax
  4015e8:	69 c0 34 8d 00 00    	imul   $0x8d34,%eax,%eax
  4015ee:	89 44 24 24          	mov    %eax,0x24(%rsp)
  4015f2:	8b 44 24 24          	mov    0x24(%rsp),%eax
  4015f6:	69 c0 bf 73 00 00    	imul   $0x73bf,%eax,%eax
  4015fc:	89 44 24 24          	mov    %eax,0x24(%rsp)
  401600:	8b 44 24 14          	mov    0x14(%rsp),%eax
  401604:	69 c0 03 53 00 00    	imul   $0x5303,%eax,%eax
  40160a:	89 44 24 14          	mov    %eax,0x14(%rsp)
  40160e:	8b 44 24 0c          	mov    0xc(%rsp),%eax
  401612:	69 c0 ba ac 00 00    	imul   $0xacba,%eax,%eax
  401618:	89 44 24 0c          	mov    %eax,0xc(%rsp)
  40161c:	8b 44 24 1c          	mov    0x1c(%rsp),%eax
  401620:	69 c0 5c ee 00 00    	imul   $0xee5c,%eax,%eax
  401626:	89 44 24 1c          	mov    %eax,0x1c(%rsp)
  40162a:	8b 44 24 20          	mov    0x20(%rsp),%eax
  40162e:	69 c0 0c d8 00 00    	imul   $0xd80c,%eax,%eax
  401634:	89 44 24 20          	mov    %eax,0x20(%rsp)
  401638:	8b 44 24 08          	mov    0x8(%rsp),%eax
  40163c:	69 c0 ad 3c 00 00    	imul   $0x3cad,%eax,%eax
  401642:	89 44 24 08          	mov    %eax,0x8(%rsp)
  401646:	8b 44 24 10          	mov    0x10(%rsp),%eax
  40164a:	69 c0 04 78 00 00    	imul   $0x7804,%eax,%eax
  401650:	89 44 24 10          	mov    %eax,0x10(%rsp)
  401654:	8b 04 24             	mov    (%rsp),%eax
  401657:	69 c0 36 2e 00 00    	imul   $0x2e36,%eax,%eax
  40165d:	89 04 24             	mov    %eax,(%rsp)
  401660:	8b 44 24 24          	mov    0x24(%rsp),%eax
  401664:	69 c0 dd 36 00 00    	imul   $0x36dd,%eax,%eax
  40166a:	89 44 24 24          	mov    %eax,0x24(%rsp)
  40166e:	8b 44 24 08          	mov    0x8(%rsp),%eax
  401672:	69 c0 34 08 00 00    	imul   $0x834,%eax,%eax
  401678:	89 44 24 08          	mov    %eax,0x8(%rsp)
  40167c:	8b 44 24 0c          	mov    0xc(%rsp),%eax
  401680:	69 c0 13 3e 00 00    	imul   $0x3e13,%eax,%eax
  401686:	89 44 24 0c          	mov    %eax,0xc(%rsp)
  40168a:	8b 44 24 1c          	mov    0x1c(%rsp),%eax
  40168e:	69 c0 ab 87 00 00    	imul   $0x87ab,%eax,%eax
  401694:	89 44 24 1c          	mov    %eax,0x1c(%rsp)
  401698:	8b 44 24 04          	mov    0x4(%rsp),%eax
  40169c:	69 c0 81 d3 00 00    	imul   $0xd381,%eax,%eax
  4016a2:	89 44 24 04          	mov    %eax,0x4(%rsp)
  4016a6:	8b 44 24 24          	mov    0x24(%rsp),%eax
  4016aa:	69 c0 58 14 00 00    	imul   $0x1458,%eax,%eax
  4016b0:	89 44 24 24          	mov    %eax,0x24(%rsp)
  4016b4:	8b 44 24 18          	mov    0x18(%rsp),%eax
  4016b8:	69 c0 81 d6 00 00    	imul   $0xd681,%eax,%eax
  4016be:	89 44 24 18          	mov    %eax,0x18(%rsp)
  4016c2:	8b 44 24 20          	mov    0x20(%rsp),%eax
  4016c6:	69 c0 b3 61 00 00    	imul   $0x61b3,%eax,%eax
  4016cc:	89 44 24 20          	mov    %eax,0x20(%rsp)
  4016d0:	8b 44 24 08          	mov    0x8(%rsp),%eax
  4016d4:	69 c0 c9 2c 00 00    	imul   $0x2cc9,%eax,%eax
  4016da:	89 44 24 08          	mov    %eax,0x8(%rsp)
  4016de:	8b 44 24 1c          	mov    0x1c(%rsp),%eax
  4016e2:	69 c0 87 eb 00 00    	imul   $0xeb87,%eax,%eax
  4016e8:	89 44 24 1c          	mov    %eax,0x1c(%rsp)
  4016ec:	8b 44 24 0c          	mov    0xc(%rsp),%eax
  4016f0:	69 c0 00 63 00 00    	imul   $0x6300,%eax,%eax
  4016f6:	89 44 24 0c          	mov    %eax,0xc(%rsp)
  4016fa:	8b 04 24             	mov    (%rsp),%eax
  4016fd:	69 c0 71 e5 00 00    	imul   $0xe571,%eax,%eax
  401703:	89 04 24             	mov    %eax,(%rsp)
  401706:	8b 44 24 18          	mov    0x18(%rsp),%eax
  40170a:	69 c0 ce 0d 00 00    	imul   $0xdce,%eax,%eax
  401710:	89 44 24 18          	mov    %eax,0x18(%rsp)
  401714:	8b 44 24 10          	mov    0x10(%rsp),%eax
  401718:	69 c0 96 ec 00 00    	imul   $0xec96,%eax,%eax
  40171e:	89 44 24 10          	mov    %eax,0x10(%rsp)
  401722:	8b 44 24 04          	mov    0x4(%rsp),%eax
  401726:	69 c0 0e c3 00 00    	imul   $0xc30e,%eax,%eax
  40172c:	89 44 24 04          	mov    %eax,0x4(%rsp)
  401730:	8b 44 24 10          	mov    0x10(%rsp),%eax
  401734:	69 c0 a7 dc 00 00    	imul   $0xdca7,%eax,%eax
  40173a:	89 44 24 10          	mov    %eax,0x10(%rsp)
  40173e:	8b 44 24 1c          	mov    0x1c(%rsp),%eax
  401742:	69 c0 9c 66 00 00    	imul   $0x669c,%eax,%eax
  401748:	89 44 24 1c          	mov    %eax,0x1c(%rsp)
  40174c:	8b 44 24 24          	mov    0x24(%rsp),%eax
  401750:	69 c0 7a 91 00 00    	imul   $0x917a,%eax,%eax
  401756:	89 44 24 24          	mov    %eax,0x24(%rsp)
  40175a:	8b 44 24 14          	mov    0x14(%rsp),%eax
  40175e:	69 c0 82 89 00 00    	imul   $0x8982,%eax,%eax
  401764:	89 44 24 14          	mov    %eax,0x14(%rsp)
  401768:	8b 44 24 0c          	mov    0xc(%rsp),%eax
  40176c:	69 c0 84 be 00 00    	imul   $0xbe84,%eax,%eax
  401772:	89 44 24 0c          	mov    %eax,0xc(%rsp)
  401776:	8b 44 24 0c          	mov    0xc(%rsp),%eax
  40177a:	69 c0 dd 6c 00 00    	imul   $0x6cdd,%eax,%eax
  401780:	89 44 24 0c          	mov    %eax,0xc(%rsp)
  401784:	8b 44 24 08          	mov    0x8(%rsp),%eax
  401788:	69 c0 54 9b 00 00    	imul   $0x9b54,%eax,%eax
  40178e:	89 44 24 08          	mov    %eax,0x8(%rsp)
  401792:	8b 44 24 14          	mov    0x14(%rsp),%eax
  401796:	69 c0 69 74 00 00    	imul   $0x7469,%eax,%eax
  40179c:	89 44 24 14          	mov    %eax,0x14(%rsp)
  4017a0:	8b 44 24 04          	mov    0x4(%rsp),%eax
  4017a4:	69 c0 9e 8d 00 00    	imul   $0x8d9e,%eax,%eax
  4017aa:	89 44 24 04          	mov    %eax,0x4(%rsp)
  4017ae:	8b 44 24 18          	mov    0x18(%rsp),%eax
  4017b2:	69 c0 be b1 00 00    	imul   $0xb1be,%eax,%eax
  4017b8:	89 44 24 18          	mov    %eax,0x18(%rsp)
  4017bc:	8b 44 24 10          	mov    0x10(%rsp),%eax
  4017c0:	69 c0 b6 7a 00 00    	imul   $0x7ab6,%eax,%eax
  4017c6:	89 44 24 10          	mov    %eax,0x10(%rsp)
  4017ca:	8b 44 24 14          	mov    0x14(%rsp),%eax
  4017ce:	69 c0 09 53 00 00    	imul   $0x5309,%eax,%eax
  4017d4:	89 44 24 14          	mov    %eax,0x14(%rsp)
  4017d8:	8b 44 24 0c          	mov    0xc(%rsp),%eax
  4017dc:	69 c0 ca 4f 00 00    	imul   $0x4fca,%eax,%eax
  4017e2:	89 44 24 0c          	mov    %eax,0xc(%rsp)
  4017e6:	8b 44 24 04          	mov    0x4(%rsp),%eax
  4017ea:	69 c0 45 82 00 00    	imul   $0x8245,%eax,%eax
  4017f0:	89 44 24 04          	mov    %eax,0x4(%rsp)
  4017f4:	8b 44 24 18          	mov    0x18(%rsp),%eax
  4017f8:	69 c0 aa e6 00 00    	imul   $0xe6aa,%eax,%eax
  4017fe:	89 44 24 18          	mov    %eax,0x18(%rsp)
  401802:	8b 44 24 1c          	mov    0x1c(%rsp),%eax
  401806:	69 c0 2e 57 00 00    	imul   $0x572e,%eax,%eax
  40180c:	89 44 24 1c          	mov    %eax,0x1c(%rsp)
  401810:	8b 44 24 18          	mov    0x18(%rsp),%eax
  401814:	69 c0 40 3f 00 00    	imul   $0x3f40,%eax,%eax
  40181a:	89 44 24 18          	mov    %eax,0x18(%rsp)
  40181e:	8b 04 24             	mov    (%rsp),%eax
  401821:	69 c0 2c a8 00 00    	imul   $0xa82c,%eax,%eax
  401827:	89 04 24             	mov    %eax,(%rsp)
  40182a:	8b 44 24 20          	mov    0x20(%rsp),%eax
  40182e:	69 c0 79 62 00 00    	imul   $0x6279,%eax,%eax
  401834:	89 44 24 20          	mov    %eax,0x20(%rsp)
  401838:	8b 44 24 0c          	mov    0xc(%rsp),%eax
  40183c:	69 c0 e0 e9 00 00    	imul   $0xe9e0,%eax,%eax
  401842:	89 44 24 0c          	mov    %eax,0xc(%rsp)
  401846:	8b 44 24 14          	mov    0x14(%rsp),%eax
  40184a:	69 c0 b1 8e 00 00    	imul   $0x8eb1,%eax,%eax
  401850:	89 44 24 14          	mov    %eax,0x14(%rsp)
  401854:	8b 44 24 1c          	mov    0x1c(%rsp),%eax
  401858:	69 c0 da f3 00 00    	imul   $0xf3da,%eax,%eax
  40185e:	89 44 24 1c          	mov    %eax,0x1c(%rsp)
  401862:	8b 44 24 08          	mov    0x8(%rsp),%eax
  401866:	69 c0 1b 9a 00 00    	imul   $0x9a1b,%eax,%eax
  40186c:	89 44 24 08          	mov    %eax,0x8(%rsp)
  401870:	8b 44 24 04          	mov    0x4(%rsp),%eax
  401874:	69 c0 0d 27 00 00    	imul   $0x270d,%eax,%eax
  40187a:	89 44 24 04          	mov    %eax,0x4(%rsp)
  40187e:	8b 44 24 0c          	mov    0xc(%rsp),%eax
  401882:	69 c0 77 09 00 00    	imul   $0x977,%eax,%eax
  401888:	89 44 24 0c          	mov    %eax,0xc(%rsp)
  40188c:	8b 44 24 0c          	mov    0xc(%rsp),%eax
  401890:	69 c0 df a0 00 00    	imul   $0xa0df,%eax,%eax
  401896:	89 44 24 0c          	mov    %eax,0xc(%rsp)
  40189a:	8b 44 24 24          	mov    0x24(%rsp),%eax
  40189e:	69 c0 89 ed 00 00    	imul   $0xed89,%eax,%eax
  4018a4:	89 44 24 24          	mov    %eax,0x24(%rsp)
  4018a8:	ba 00 00 00 00       	mov    $0x0,%edx
  4018ad:	b8 00 00 00 00       	mov    $0x0,%eax
  4018b2:	eb 0a                	jmp    4018be <scramble+0x57f>
  4018b4:	89 d1                	mov    %edx,%ecx
  4018b6:	8b 0c 8c             	mov    (%rsp,%rcx,4),%ecx
  4018b9:	01 c8                	add    %ecx,%eax
  4018bb:	83 c2 01             	add    $0x1,%edx
  4018be:	83 fa 09             	cmp    $0x9,%edx
  4018c1:	76 f1                	jbe    4018b4 <scramble+0x575>
  4018c3:	48 8b 74 24 28       	mov    0x28(%rsp),%rsi
  4018c8:	64 48 33 34 25 28 00 	xor    %fs:0x28,%rsi
  4018cf:	00 00 
  4018d1:	75 05                	jne    4018d8 <scramble+0x599>
  4018d3:	48 83 c4 38          	add    $0x38,%rsp
  4018d7:	c3                   	retq   
  4018d8:	e8 03 f4 ff ff       	callq  400ce0 <__stack_chk_fail@plt>

00000000004018dd <getbuf>:
  4018dd:	48 83 ec 18          	sub    $0x18,%rsp
  4018e1:	48 89 e7             	mov    %rsp,%rdi
  4018e4:	e8 9f 03 00 00       	callq  401c88 <Gets>
  4018e9:	b8 01 00 00 00       	mov    $0x1,%eax
  4018ee:	48 83 c4 18          	add    $0x18,%rsp
  4018f2:	c3                   	retq   

00000000004018f3 <touch1>:
  4018f3:	48 83 ec 08          	sub    $0x8,%rsp
  4018f7:	c7 05 fb 3b 20 00 01 	movl   $0x1,0x203bfb(%rip)        # 6054fc <vlevel>
  4018fe:	00 00 00 
  401901:	bf 5b 33 40 00       	mov    $0x40335b,%edi
  401906:	e8 b5 f3 ff ff       	callq  400cc0 <puts@plt>
  40190b:	bf 01 00 00 00       	mov    $0x1,%edi
  401910:	e8 c8 05 00 00       	callq  401edd <validate>
  401915:	bf 00 00 00 00       	mov    $0x0,%edi
  40191a:	e8 11 f5 ff ff       	callq  400e30 <exit@plt>

000000000040191f <touch2>:
  40191f:	48 83 ec 08          	sub    $0x8,%rsp
  401923:	89 fa                	mov    %edi,%edx
  401925:	c7 05 cd 3b 20 00 02 	movl   $0x2,0x203bcd(%rip)        # 6054fc <vlevel>
  40192c:	00 00 00 
  40192f:	39 3d cf 3b 20 00    	cmp    %edi,0x203bcf(%rip)        # 605504 <cookie>
  401935:	74 28                	je     40195f <touch2+0x40>
  401937:	be a8 33 40 00       	mov    $0x4033a8,%esi
  40193c:	bf 01 00 00 00       	mov    $0x1,%edi
  401941:	b8 00 00 00 00       	mov    $0x0,%eax
  401946:	e8 95 f4 ff ff       	callq  400de0 <__printf_chk@plt>
  40194b:	bf 02 00 00 00       	mov    $0x2,%edi
  401950:	e8 4d 06 00 00       	callq  401fa2 <fail>
  401955:	bf 00 00 00 00       	mov    $0x0,%edi
  40195a:	e8 d1 f4 ff ff       	callq  400e30 <exit@plt>
  40195f:	be 80 33 40 00       	mov    $0x403380,%esi
  401964:	bf 01 00 00 00       	mov    $0x1,%edi
  401969:	b8 00 00 00 00       	mov    $0x0,%eax
  40196e:	e8 6d f4 ff ff       	callq  400de0 <__printf_chk@plt>
  401973:	bf 02 00 00 00       	mov    $0x2,%edi
  401978:	e8 60 05 00 00       	callq  401edd <validate>
  40197d:	eb d6                	jmp    401955 <touch2+0x36>

000000000040197f <hexmatch>:
  40197f:	41 54                	push   %r12
  401981:	55                   	push   %rbp
  401982:	53                   	push   %rbx
  401983:	48 83 c4 80          	add    $0xffffffffffffff80,%rsp
  401987:	89 fd                	mov    %edi,%ebp
  401989:	48 89 f3             	mov    %rsi,%rbx
  40198c:	64 48 8b 04 25 28 00 	mov    %fs:0x28,%rax
  401993:	00 00 
  401995:	48 89 44 24 78       	mov    %rax,0x78(%rsp)
  40199a:	31 c0                	xor    %eax,%eax
  40199c:	e8 ff f3 ff ff       	callq  400da0 <random@plt>
  4019a1:	48 89 c1             	mov    %rax,%rcx
  4019a4:	48 ba 0b d7 a3 70 3d 	movabs $0xa3d70a3d70a3d70b,%rdx
  4019ab:	0a d7 a3 
  4019ae:	48 f7 ea             	imul   %rdx
  4019b1:	48 01 ca             	add    %rcx,%rdx
  4019b4:	48 c1 fa 06          	sar    $0x6,%rdx
  4019b8:	48 89 c8             	mov    %rcx,%rax
  4019bb:	48 c1 f8 3f          	sar    $0x3f,%rax
  4019bf:	48 29 c2             	sub    %rax,%rdx
  4019c2:	48 8d 04 92          	lea    (%rdx,%rdx,4),%rax
  4019c6:	48 8d 14 80          	lea    (%rax,%rax,4),%rdx
  4019ca:	48 8d 04 95 00 00 00 	lea    0x0(,%rdx,4),%rax
  4019d1:	00 
  4019d2:	48 29 c1             	sub    %rax,%rcx
  4019d5:	4c 8d 24 0c          	lea    (%rsp,%rcx,1),%r12
  4019d9:	41 89 e8             	mov    %ebp,%r8d
  4019dc:	b9 78 33 40 00       	mov    $0x403378,%ecx
  4019e1:	48 c7 c2 ff ff ff ff 	mov    $0xffffffffffffffff,%rdx
  4019e8:	be 01 00 00 00       	mov    $0x1,%esi
  4019ed:	4c 89 e7             	mov    %r12,%rdi
  4019f0:	b8 00 00 00 00       	mov    $0x0,%eax
  4019f5:	e8 66 f4 ff ff       	callq  400e60 <__sprintf_chk@plt>
  4019fa:	ba 09 00 00 00       	mov    $0x9,%edx
  4019ff:	4c 89 e6             	mov    %r12,%rsi
  401a02:	48 89 df             	mov    %rbx,%rdi
  401a05:	e8 96 f2 ff ff       	callq  400ca0 <strncmp@plt>
  401a0a:	85 c0                	test   %eax,%eax
  401a0c:	0f 94 c0             	sete   %al
  401a0f:	48 8b 5c 24 78       	mov    0x78(%rsp),%rbx
  401a14:	64 48 33 1c 25 28 00 	xor    %fs:0x28,%rbx
  401a1b:	00 00 
  401a1d:	75 0c                	jne    401a2b <hexmatch+0xac>
  401a1f:	0f b6 c0             	movzbl %al,%eax
  401a22:	48 83 ec 80          	sub    $0xffffffffffffff80,%rsp
  401a26:	5b                   	pop    %rbx
  401a27:	5d                   	pop    %rbp
  401a28:	41 5c                	pop    %r12
  401a2a:	c3                   	retq   
  401a2b:	e8 b0 f2 ff ff       	callq  400ce0 <__stack_chk_fail@plt>

0000000000401a30 <touch3>:
  401a30:	53                   	push   %rbx
  401a31:	48 89 fb             	mov    %rdi,%rbx
  401a34:	c7 05 be 3a 20 00 03 	movl   $0x3,0x203abe(%rip)        # 6054fc <vlevel>
  401a3b:	00 00 00 
  401a3e:	48 89 fe             	mov    %rdi,%rsi
  401a41:	8b 3d bd 3a 20 00    	mov    0x203abd(%rip),%edi        # 605504 <cookie>
  401a47:	e8 33 ff ff ff       	callq  40197f <hexmatch>
  401a4c:	85 c0                	test   %eax,%eax
  401a4e:	74 2b                	je     401a7b <touch3+0x4b>
  401a50:	48 89 da             	mov    %rbx,%rdx
  401a53:	be d0 33 40 00       	mov    $0x4033d0,%esi
  401a58:	bf 01 00 00 00       	mov    $0x1,%edi
  401a5d:	b8 00 00 00 00       	mov    $0x0,%eax
  401a62:	e8 79 f3 ff ff       	callq  400de0 <__printf_chk@plt>
  401a67:	bf 03 00 00 00       	mov    $0x3,%edi
  401a6c:	e8 6c 04 00 00       	callq  401edd <validate>
  401a71:	bf 00 00 00 00       	mov    $0x0,%edi
  401a76:	e8 b5 f3 ff ff       	callq  400e30 <exit@plt>
  401a7b:	48 89 da             	mov    %rbx,%rdx
  401a7e:	be f8 33 40 00       	mov    $0x4033f8,%esi
  401a83:	bf 01 00 00 00       	mov    $0x1,%edi
  401a88:	b8 00 00 00 00       	mov    $0x0,%eax
  401a8d:	e8 4e f3 ff ff       	callq  400de0 <__printf_chk@plt>
  401a92:	bf 03 00 00 00       	mov    $0x3,%edi
  401a97:	e8 06 05 00 00       	callq  401fa2 <fail>
  401a9c:	eb d3                	jmp    401a71 <touch3+0x41>

0000000000401a9e <test>:
  401a9e:	48 83 ec 08          	sub    $0x8,%rsp
  401aa2:	b8 00 00 00 00       	mov    $0x0,%eax
  401aa7:	e8 31 fe ff ff       	callq  4018dd <getbuf>
  401aac:	89 c2                	mov    %eax,%edx
  401aae:	be 20 34 40 00       	mov    $0x403420,%esi
  401ab3:	bf 01 00 00 00       	mov    $0x1,%edi
  401ab8:	b8 00 00 00 00       	mov    $0x0,%eax
  401abd:	e8 1e f3 ff ff       	callq  400de0 <__printf_chk@plt>
  401ac2:	48 83 c4 08          	add    $0x8,%rsp
  401ac6:	c3                   	retq   

0000000000401ac7 <start_farm>:
  401ac7:	b8 01 00 00 00       	mov    $0x1,%eax
  401acc:	c3                   	retq   

0000000000401acd <setval_185>:
  401acd:	c7 07 19 58 90 90    	movl   $0x90905819,(%rdi)
  401ad3:	c3                   	retq   

0000000000401ad4 <addval_407>:
  401ad4:	8d 87 2a 58 90 90    	lea    -0x6f6fa7d6(%rdi),%eax
  401ada:	c3                   	retq   

0000000000401adb <addval_494>:
  401adb:	8d 87 48 89 c7 90    	lea    -0x6f3876b8(%rdi),%eax
  401ae1:	c3                   	retq   

0000000000401ae2 <addval_406>:
  401ae2:	8d 87 48 89 c7 90    	lea    -0x6f3876b8(%rdi),%eax
  401ae8:	c3                   	retq   

0000000000401ae9 <getval_116>:
  401ae9:	b8 48 89 c7 92       	mov    $0x92c78948,%eax
  401aee:	c3                   	retq   

0000000000401aef <setval_113>:
  401aef:	c7 07 48 89 c7 c1    	movl   $0xc1c78948,(%rdi)
  401af5:	c3                   	retq   

0000000000401af6 <getval_313>:
  401af6:	b8 58 90 92 c3       	mov    $0xc3929058,%eax
  401afb:	c3                   	retq   

0000000000401afc <getval_115>:
  401afc:	b8 48 c3 99 b7       	mov    $0xb799c348,%eax
  401b01:	c3                   	retq   

0000000000401b02 <mid_farm>:
  401b02:	b8 01 00 00 00       	mov    $0x1,%eax
  401b07:	c3                   	retq   

0000000000401b08 <add_xy>:
  401b08:	48 8d 04 37          	lea    (%rdi,%rsi,1),%rax
  401b0c:	c3                   	retq   

0000000000401b0d <setval_232>:
  401b0d:	c7 07 5d c9 ce c3    	movl   $0xc3cec95d,(%rdi)
  401b13:	c3                   	retq   

0000000000401b14 <addval_452>:
  401b14:	8d 87 89 d1 c1 0e    	lea    0xec1d189(%rdi),%eax
  401b1a:	c3                   	retq   

0000000000401b1b <setval_226>:
  401b1b:	c7 07 8b d1 90 90    	movl   $0x9090d18b,(%rdi)
  401b21:	c3                   	retq   

0000000000401b22 <getval_346>:
  401b22:	b8 89 d1 c4 db       	mov    $0xdbc4d189,%eax
  401b27:	c3                   	retq   

0000000000401b28 <addval_320>:
  401b28:	8d 87 89 c2 20 c0    	lea    -0x3fdf3d77(%rdi),%eax
  401b2e:	c3                   	retq   

0000000000401b2f <getval_311>:
  401b2f:	b8 89 d1 91 90       	mov    $0x9091d189,%eax
  401b34:	c3                   	retq   

0000000000401b35 <setval_430>:
  401b35:	c7 07 89 c2 91 c3    	movl   $0xc391c289,(%rdi)
  401b3b:	c3                   	retq   

0000000000401b3c <setval_450>:
  401b3c:	c7 07 81 c2 08 c9    	movl   $0xc908c281,(%rdi)
  401b42:	c3                   	retq   

0000000000401b43 <addval_236>:
  401b43:	8d 87 09 d1 90 c3    	lea    -0x3c6f2ef7(%rdi),%eax
  401b49:	c3                   	retq   

0000000000401b4a <setval_144>:
  401b4a:	c7 07 89 ce 94 db    	movl   $0xdb94ce89,(%rdi)
  401b50:	c3                   	retq   

0000000000401b51 <getval_225>:
  401b51:	b8 48 89 e0 c3       	mov    $0xc3e08948,%eax
  401b56:	c3                   	retq   

0000000000401b57 <setval_111>:
  401b57:	c7 07 89 ce a4 d2    	movl   $0xd2a4ce89,(%rdi)
  401b5d:	c3                   	retq   

0000000000401b5e <addval_153>:
  401b5e:	8d 87 7a c9 c2 90    	lea    -0x6f3d3686(%rdi),%eax
  401b64:	c3                   	retq   

0000000000401b65 <getval_257>:
  401b65:	b8 b8 89 ce c7       	mov    $0xc7ce89b8,%eax
  401b6a:	c3                   	retq   

0000000000401b6b <addval_424>:
  401b6b:	8d 87 a9 ce 38 c9    	lea    -0x36c73157(%rdi),%eax
  401b71:	c3                   	retq   

0000000000401b72 <getval_146>:
  401b72:	b8 4a 89 e0 c3       	mov    $0xc3e0894a,%eax
  401b77:	c3                   	retq   

0000000000401b78 <setval_181>:
  401b78:	c7 07 8d c2 90 90    	movl   $0x9090c28d,(%rdi)
  401b7e:	c3                   	retq   

0000000000401b7f <getval_173>:
  401b7f:	b8 89 d1 38 c0       	mov    $0xc038d189,%eax
  401b84:	c3                   	retq   

0000000000401b85 <setval_178>:
  401b85:	c7 07 48 89 e0 c7    	movl   $0xc7e08948,(%rdi)
  401b8b:	c3                   	retq   

0000000000401b8c <setval_152>:
  401b8c:	c7 07 48 a9 e0 c3    	movl   $0xc3e0a948,(%rdi)
  401b92:	c3                   	retq   

0000000000401b93 <getval_172>:
  401b93:	b8 69 48 8d e0       	mov    $0xe08d4869,%eax
  401b98:	c3                   	retq   

0000000000401b99 <setval_222>:
  401b99:	c7 07 89 c2 84 c9    	movl   $0xc984c289,(%rdi)
  401b9f:	c3                   	retq   

0000000000401ba0 <setval_440>:
  401ba0:	c7 07 48 89 e0 c3    	movl   $0xc3e08948,(%rdi)
  401ba6:	c3                   	retq   

0000000000401ba7 <addval_203>:
  401ba7:	8d 87 89 ce 20 db    	lea    -0x24df3177(%rdi),%eax
  401bad:	c3                   	retq   

0000000000401bae <addval_199>:
  401bae:	8d 87 8b ce 38 d2    	lea    -0x2dc73175(%rdi),%eax
  401bb4:	c3                   	retq   

0000000000401bb5 <setval_299>:
  401bb5:	c7 07 81 d1 08 c9    	movl   $0xc908d181,(%rdi)
  401bbb:	c3                   	retq   

0000000000401bbc <getval_344>:
  401bbc:	b8 89 d1 84 d2       	mov    $0xd284d189,%eax
  401bc1:	c3                   	retq   

0000000000401bc2 <addval_338>:
  401bc2:	8d 87 8d c2 90 c3    	lea    -0x3c6f3d73(%rdi),%eax
  401bc8:	c3                   	retq   

0000000000401bc9 <getval_444>:
  401bc9:	b8 89 ce 38 db       	mov    $0xdb38ce89,%eax
  401bce:	c3                   	retq   

0000000000401bcf <addval_261>:
  401bcf:	8d 87 48 89 e0 91    	lea    -0x6e1f76b8(%rdi),%eax
  401bd5:	c3                   	retq   

0000000000401bd6 <getval_204>:
  401bd6:	b8 48 89 e0 94       	mov    $0x94e08948,%eax
  401bdb:	c3                   	retq   

0000000000401bdc <getval_386>:
  401bdc:	b8 89 c2 94 90       	mov    $0x9094c289,%eax
  401be1:	c3                   	retq   

0000000000401be2 <end_farm>:
  401be2:	b8 01 00 00 00       	mov    $0x1,%eax
  401be7:	c3                   	retq   

0000000000401be8 <save_char>:
  401be8:	8b 05 36 45 20 00    	mov    0x204536(%rip),%eax        # 606124 <gets_cnt>
  401bee:	3d ff 03 00 00       	cmp    $0x3ff,%eax
  401bf3:	7f 49                	jg     401c3e <save_char+0x56>
  401bf5:	89 f9                	mov    %edi,%ecx
  401bf7:	c0 e9 04             	shr    $0x4,%cl
  401bfa:	8d 14 40             	lea    (%rax,%rax,2),%edx
  401bfd:	83 e1 0f             	and    $0xf,%ecx
  401c00:	0f b6 b1 40 37 40 00 	movzbl 0x403740(%rcx),%esi
  401c07:	48 63 ca             	movslq %edx,%rcx
  401c0a:	40 88 b1 20 55 60 00 	mov    %sil,0x605520(%rcx)
  401c11:	8d 4a 01             	lea    0x1(%rdx),%ecx
  401c14:	83 e7 0f             	and    $0xf,%edi
  401c17:	0f b6 b7 40 37 40 00 	movzbl 0x403740(%rdi),%esi
  401c1e:	48 63 c9             	movslq %ecx,%rcx
  401c21:	40 88 b1 20 55 60 00 	mov    %sil,0x605520(%rcx)
  401c28:	83 c2 02             	add    $0x2,%edx
  401c2b:	48 63 d2             	movslq %edx,%rdx
  401c2e:	c6 82 20 55 60 00 20 	movb   $0x20,0x605520(%rdx)
  401c35:	83 c0 01             	add    $0x1,%eax
  401c38:	89 05 e6 44 20 00    	mov    %eax,0x2044e6(%rip)        # 606124 <gets_cnt>
  401c3e:	f3 c3                	repz retq 

0000000000401c40 <save_term>:
  401c40:	8b 05 de 44 20 00    	mov    0x2044de(%rip),%eax        # 606124 <gets_cnt>
  401c46:	8d 04 40             	lea    (%rax,%rax,2),%eax
  401c49:	48 98                	cltq   
  401c4b:	c6 80 20 55 60 00 00 	movb   $0x0,0x605520(%rax)
  401c52:	c3                   	retq   

0000000000401c53 <check_fail>:
  401c53:	48 83 ec 08          	sub    $0x8,%rsp
  401c57:	0f be 15 ca 44 20 00 	movsbl 0x2044ca(%rip),%edx        # 606128 <target_prefix>
  401c5e:	41 b8 20 55 60 00    	mov    $0x605520,%r8d
  401c64:	8b 0d 8e 38 20 00    	mov    0x20388e(%rip),%ecx        # 6054f8 <check_level>
  401c6a:	be 43 34 40 00       	mov    $0x403443,%esi
  401c6f:	bf 01 00 00 00       	mov    $0x1,%edi
  401c74:	b8 00 00 00 00       	mov    $0x0,%eax
  401c79:	e8 62 f1 ff ff       	callq  400de0 <__printf_chk@plt>
  401c7e:	bf 01 00 00 00       	mov    $0x1,%edi
  401c83:	e8 a8 f1 ff ff       	callq  400e30 <exit@plt>

0000000000401c88 <Gets>:
  401c88:	41 54                	push   %r12
  401c8a:	55                   	push   %rbp
  401c8b:	53                   	push   %rbx
  401c8c:	49 89 fc             	mov    %rdi,%r12
  401c8f:	c7 05 8b 44 20 00 00 	movl   $0x0,0x20448b(%rip)        # 606124 <gets_cnt>
  401c96:	00 00 00 
  401c99:	48 89 fb             	mov    %rdi,%rbx
  401c9c:	eb 11                	jmp    401caf <Gets+0x27>
  401c9e:	48 8d 6b 01          	lea    0x1(%rbx),%rbp
  401ca2:	88 03                	mov    %al,(%rbx)
  401ca4:	0f b6 f8             	movzbl %al,%edi
  401ca7:	e8 3c ff ff ff       	callq  401be8 <save_char>
  401cac:	48 89 eb             	mov    %rbp,%rbx
  401caf:	48 8b 3d 3a 38 20 00 	mov    0x20383a(%rip),%rdi        # 6054f0 <infile>
  401cb6:	e8 f5 f0 ff ff       	callq  400db0 <_IO_getc@plt>
  401cbb:	83 f8 ff             	cmp    $0xffffffff,%eax
  401cbe:	74 05                	je     401cc5 <Gets+0x3d>
  401cc0:	83 f8 0a             	cmp    $0xa,%eax
  401cc3:	75 d9                	jne    401c9e <Gets+0x16>
  401cc5:	c6 03 00             	movb   $0x0,(%rbx)
  401cc8:	b8 00 00 00 00       	mov    $0x0,%eax
  401ccd:	e8 6e ff ff ff       	callq  401c40 <save_term>
  401cd2:	4c 89 e0             	mov    %r12,%rax
  401cd5:	5b                   	pop    %rbx
  401cd6:	5d                   	pop    %rbp
  401cd7:	41 5c                	pop    %r12
  401cd9:	c3                   	retq   

0000000000401cda <notify_server>:
  401cda:	55                   	push   %rbp
  401cdb:	53                   	push   %rbx
  401cdc:	48 81 ec 18 40 00 00 	sub    $0x4018,%rsp
  401ce3:	64 48 8b 04 25 28 00 	mov    %fs:0x28,%rax
  401cea:	00 00 
  401cec:	48 89 84 24 08 40 00 	mov    %rax,0x4008(%rsp)
  401cf3:	00 
  401cf4:	31 c0                	xor    %eax,%eax
  401cf6:	83 3d 0b 38 20 00 00 	cmpl   $0x0,0x20380b(%rip)        # 605508 <is_checker>
  401cfd:	0f 85 c9 00 00 00    	jne    401dcc <notify_server+0xf2>
  401d03:	89 fb                	mov    %edi,%ebx
  401d05:	8b 05 19 44 20 00    	mov    0x204419(%rip),%eax        # 606124 <gets_cnt>
  401d0b:	83 c0 64             	add    $0x64,%eax
  401d0e:	3d 00 20 00 00       	cmp    $0x2000,%eax
  401d13:	0f 8f d4 00 00 00    	jg     401ded <notify_server+0x113>
  401d19:	0f be 05 08 44 20 00 	movsbl 0x204408(%rip),%eax        # 606128 <target_prefix>
  401d20:	83 3d 61 37 20 00 00 	cmpl   $0x0,0x203761(%rip)        # 605488 <notify>
  401d27:	0f 84 de 00 00 00    	je     401e0b <notify_server+0x131>
  401d2d:	8b 15 cd 37 20 00    	mov    0x2037cd(%rip),%edx        # 605500 <authkey>
  401d33:	85 db                	test   %ebx,%ebx
  401d35:	0f 84 da 00 00 00    	je     401e15 <notify_server+0x13b>
  401d3b:	bd 59 34 40 00       	mov    $0x403459,%ebp
  401d40:	68 20 55 60 00       	pushq  $0x605520
  401d45:	56                   	push   %rsi
  401d46:	50                   	push   %rax
  401d47:	52                   	push   %rdx
  401d48:	49 89 e9             	mov    %rbp,%r9
  401d4b:	44 8b 05 f6 33 20 00 	mov    0x2033f6(%rip),%r8d        # 605148 <target_id>
  401d52:	b9 63 34 40 00       	mov    $0x403463,%ecx
  401d57:	ba 00 20 00 00       	mov    $0x2000,%edx
  401d5c:	be 01 00 00 00       	mov    $0x1,%esi
  401d61:	48 8d 7c 24 20       	lea    0x20(%rsp),%rdi
  401d66:	b8 00 00 00 00       	mov    $0x0,%eax
  401d6b:	e8 f0 f0 ff ff       	callq  400e60 <__sprintf_chk@plt>
  401d70:	48 83 c4 20          	add    $0x20,%rsp
  401d74:	83 3d 0d 37 20 00 00 	cmpl   $0x0,0x20370d(%rip)        # 605488 <notify>
  401d7b:	0f 84 d3 00 00 00    	je     401e54 <notify_server+0x17a>
  401d81:	85 db                	test   %ebx,%ebx
  401d83:	0f 84 bc 00 00 00    	je     401e45 <notify_server+0x16b>
  401d89:	4c 8d 8c 24 00 20 00 	lea    0x2000(%rsp),%r9
  401d90:	00 
  401d91:	41 b8 00 00 00 00    	mov    $0x0,%r8d
  401d97:	48 89 e1             	mov    %rsp,%rcx
  401d9a:	48 8b 15 af 33 20 00 	mov    0x2033af(%rip),%rdx        # 605150 <lab>
  401da1:	48 8b 35 b0 33 20 00 	mov    0x2033b0(%rip),%rsi        # 605158 <course>
  401da8:	48 8b 3d 91 33 20 00 	mov    0x203391(%rip),%rdi        # 605140 <user_id>
  401daf:	e8 31 11 00 00       	callq  402ee5 <driver_post>
  401db4:	85 c0                	test   %eax,%eax
  401db6:	78 67                	js     401e1f <notify_server+0x145>
  401db8:	bf a8 35 40 00       	mov    $0x4035a8,%edi
  401dbd:	e8 fe ee ff ff       	callq  400cc0 <puts@plt>
  401dc2:	bf 8b 34 40 00       	mov    $0x40348b,%edi
  401dc7:	e8 f4 ee ff ff       	callq  400cc0 <puts@plt>
  401dcc:	48 8b 84 24 08 40 00 	mov    0x4008(%rsp),%rax
  401dd3:	00 
  401dd4:	64 48 33 04 25 28 00 	xor    %fs:0x28,%rax
  401ddb:	00 00 
  401ddd:	0f 85 f5 00 00 00    	jne    401ed8 <notify_server+0x1fe>
  401de3:	48 81 c4 18 40 00 00 	add    $0x4018,%rsp
  401dea:	5b                   	pop    %rbx
  401deb:	5d                   	pop    %rbp
  401dec:	c3                   	retq   
  401ded:	be 78 35 40 00       	mov    $0x403578,%esi
  401df2:	bf 01 00 00 00       	mov    $0x1,%edi
  401df7:	b8 00 00 00 00       	mov    $0x0,%eax
  401dfc:	e8 df ef ff ff       	callq  400de0 <__printf_chk@plt>
  401e01:	bf 01 00 00 00       	mov    $0x1,%edi
  401e06:	e8 25 f0 ff ff       	callq  400e30 <exit@plt>
  401e0b:	ba ff ff ff ff       	mov    $0xffffffff,%edx
  401e10:	e9 1e ff ff ff       	jmpq   401d33 <notify_server+0x59>
  401e15:	bd 5e 34 40 00       	mov    $0x40345e,%ebp
  401e1a:	e9 21 ff ff ff       	jmpq   401d40 <notify_server+0x66>
  401e1f:	48 8d 94 24 00 20 00 	lea    0x2000(%rsp),%rdx
  401e26:	00 
  401e27:	be 7f 34 40 00       	mov    $0x40347f,%esi
  401e2c:	bf 01 00 00 00       	mov    $0x1,%edi
  401e31:	b8 00 00 00 00       	mov    $0x0,%eax
  401e36:	e8 a5 ef ff ff       	callq  400de0 <__printf_chk@plt>
  401e3b:	bf 01 00 00 00       	mov    $0x1,%edi
  401e40:	e8 eb ef ff ff       	callq  400e30 <exit@plt>
  401e45:	bf 95 34 40 00       	mov    $0x403495,%edi
  401e4a:	e8 71 ee ff ff       	callq  400cc0 <puts@plt>
  401e4f:	e9 78 ff ff ff       	jmpq   401dcc <notify_server+0xf2>
  401e54:	48 89 ea             	mov    %rbp,%rdx
  401e57:	be e0 35 40 00       	mov    $0x4035e0,%esi
  401e5c:	bf 01 00 00 00       	mov    $0x1,%edi
  401e61:	b8 00 00 00 00       	mov    $0x0,%eax
  401e66:	e8 75 ef ff ff       	callq  400de0 <__printf_chk@plt>
  401e6b:	48 8b 15 ce 32 20 00 	mov    0x2032ce(%rip),%rdx        # 605140 <user_id>
  401e72:	be 9c 34 40 00       	mov    $0x40349c,%esi
  401e77:	bf 01 00 00 00       	mov    $0x1,%edi
  401e7c:	b8 00 00 00 00       	mov    $0x0,%eax
  401e81:	e8 5a ef ff ff       	callq  400de0 <__printf_chk@plt>
  401e86:	48 8b 15 cb 32 20 00 	mov    0x2032cb(%rip),%rdx        # 605158 <course>
  401e8d:	be a9 34 40 00       	mov    $0x4034a9,%esi
  401e92:	bf 01 00 00 00       	mov    $0x1,%edi
  401e97:	b8 00 00 00 00       	mov    $0x0,%eax
  401e9c:	e8 3f ef ff ff       	callq  400de0 <__printf_chk@plt>
  401ea1:	48 8b 15 a8 32 20 00 	mov    0x2032a8(%rip),%rdx        # 605150 <lab>
  401ea8:	be b5 34 40 00       	mov    $0x4034b5,%esi
  401ead:	bf 01 00 00 00       	mov    $0x1,%edi
  401eb2:	b8 00 00 00 00       	mov    $0x0,%eax
  401eb7:	e8 24 ef ff ff       	callq  400de0 <__printf_chk@plt>
  401ebc:	48 89 e2             	mov    %rsp,%rdx
  401ebf:	be be 34 40 00       	mov    $0x4034be,%esi
  401ec4:	bf 01 00 00 00       	mov    $0x1,%edi
  401ec9:	b8 00 00 00 00       	mov    $0x0,%eax
  401ece:	e8 0d ef ff ff       	callq  400de0 <__printf_chk@plt>
  401ed3:	e9 f4 fe ff ff       	jmpq   401dcc <notify_server+0xf2>
  401ed8:	e8 03 ee ff ff       	callq  400ce0 <__stack_chk_fail@plt>

0000000000401edd <validate>:
  401edd:	53                   	push   %rbx
  401ede:	89 fb                	mov    %edi,%ebx
  401ee0:	83 3d 21 36 20 00 00 	cmpl   $0x0,0x203621(%rip)        # 605508 <is_checker>
  401ee7:	74 6b                	je     401f54 <validate+0x77>
  401ee9:	39 3d 0d 36 20 00    	cmp    %edi,0x20360d(%rip)        # 6054fc <vlevel>
  401eef:	75 2f                	jne    401f20 <validate+0x43>
  401ef1:	8b 15 01 36 20 00    	mov    0x203601(%rip),%edx        # 6054f8 <check_level>
  401ef7:	39 fa                	cmp    %edi,%edx
  401ef9:	75 39                	jne    401f34 <validate+0x57>
  401efb:	0f be 15 26 42 20 00 	movsbl 0x204226(%rip),%edx        # 606128 <target_prefix>
  401f02:	41 b8 20 55 60 00    	mov    $0x605520,%r8d
  401f08:	89 f9                	mov    %edi,%ecx
  401f0a:	be e8 34 40 00       	mov    $0x4034e8,%esi
  401f0f:	bf 01 00 00 00       	mov    $0x1,%edi
  401f14:	b8 00 00 00 00       	mov    $0x0,%eax
  401f19:	e8 c2 ee ff ff       	callq  400de0 <__printf_chk@plt>
  401f1e:	5b                   	pop    %rbx
  401f1f:	c3                   	retq   
  401f20:	bf ca 34 40 00       	mov    $0x4034ca,%edi
  401f25:	e8 96 ed ff ff       	callq  400cc0 <puts@plt>
  401f2a:	b8 00 00 00 00       	mov    $0x0,%eax
  401f2f:	e8 1f fd ff ff       	callq  401c53 <check_fail>
  401f34:	89 f9                	mov    %edi,%ecx
  401f36:	be 08 36 40 00       	mov    $0x403608,%esi
  401f3b:	bf 01 00 00 00       	mov    $0x1,%edi
  401f40:	b8 00 00 00 00       	mov    $0x0,%eax
  401f45:	e8 96 ee ff ff       	callq  400de0 <__printf_chk@plt>
  401f4a:	b8 00 00 00 00       	mov    $0x0,%eax
  401f4f:	e8 ff fc ff ff       	callq  401c53 <check_fail>
  401f54:	39 3d a2 35 20 00    	cmp    %edi,0x2035a2(%rip)        # 6054fc <vlevel>
  401f5a:	74 18                	je     401f74 <validate+0x97>
  401f5c:	bf ca 34 40 00       	mov    $0x4034ca,%edi
  401f61:	e8 5a ed ff ff       	callq  400cc0 <puts@plt>
  401f66:	89 de                	mov    %ebx,%esi
  401f68:	bf 00 00 00 00       	mov    $0x0,%edi
  401f6d:	e8 68 fd ff ff       	callq  401cda <notify_server>
  401f72:	eb aa                	jmp    401f1e <validate+0x41>
  401f74:	0f be 0d ad 41 20 00 	movsbl 0x2041ad(%rip),%ecx        # 606128 <target_prefix>
  401f7b:	89 fa                	mov    %edi,%edx
  401f7d:	be 30 36 40 00       	mov    $0x403630,%esi
  401f82:	bf 01 00 00 00       	mov    $0x1,%edi
  401f87:	b8 00 00 00 00       	mov    $0x0,%eax
  401f8c:	e8 4f ee ff ff       	callq  400de0 <__printf_chk@plt>
  401f91:	89 de                	mov    %ebx,%esi
  401f93:	bf 01 00 00 00       	mov    $0x1,%edi
  401f98:	e8 3d fd ff ff       	callq  401cda <notify_server>
  401f9d:	e9 7c ff ff ff       	jmpq   401f1e <validate+0x41>

0000000000401fa2 <fail>:
  401fa2:	48 83 ec 08          	sub    $0x8,%rsp
  401fa6:	83 3d 5b 35 20 00 00 	cmpl   $0x0,0x20355b(%rip)        # 605508 <is_checker>
  401fad:	75 11                	jne    401fc0 <fail+0x1e>
  401faf:	89 fe                	mov    %edi,%esi
  401fb1:	bf 00 00 00 00       	mov    $0x0,%edi
  401fb6:	e8 1f fd ff ff       	callq  401cda <notify_server>
  401fbb:	48 83 c4 08          	add    $0x8,%rsp
  401fbf:	c3                   	retq   
  401fc0:	b8 00 00 00 00       	mov    $0x0,%eax
  401fc5:	e8 89 fc ff ff       	callq  401c53 <check_fail>

0000000000401fca <bushandler>:
  401fca:	48 83 ec 08          	sub    $0x8,%rsp
  401fce:	83 3d 33 35 20 00 00 	cmpl   $0x0,0x203533(%rip)        # 605508 <is_checker>
  401fd5:	74 14                	je     401feb <bushandler+0x21>
  401fd7:	bf fd 34 40 00       	mov    $0x4034fd,%edi
  401fdc:	e8 df ec ff ff       	callq  400cc0 <puts@plt>
  401fe1:	b8 00 00 00 00       	mov    $0x0,%eax
  401fe6:	e8 68 fc ff ff       	callq  401c53 <check_fail>
  401feb:	bf 68 36 40 00       	mov    $0x403668,%edi
  401ff0:	e8 cb ec ff ff       	callq  400cc0 <puts@plt>
  401ff5:	bf 07 35 40 00       	mov    $0x403507,%edi
  401ffa:	e8 c1 ec ff ff       	callq  400cc0 <puts@plt>
  401fff:	be 00 00 00 00       	mov    $0x0,%esi
  402004:	bf 00 00 00 00       	mov    $0x0,%edi
  402009:	e8 cc fc ff ff       	callq  401cda <notify_server>
  40200e:	bf 01 00 00 00       	mov    $0x1,%edi
  402013:	e8 18 ee ff ff       	callq  400e30 <exit@plt>

0000000000402018 <seghandler>:
  402018:	48 83 ec 08          	sub    $0x8,%rsp
  40201c:	83 3d e5 34 20 00 00 	cmpl   $0x0,0x2034e5(%rip)        # 605508 <is_checker>
  402023:	74 14                	je     402039 <seghandler+0x21>
  402025:	bf 1d 35 40 00       	mov    $0x40351d,%edi
  40202a:	e8 91 ec ff ff       	callq  400cc0 <puts@plt>
  40202f:	b8 00 00 00 00       	mov    $0x0,%eax
  402034:	e8 1a fc ff ff       	callq  401c53 <check_fail>
  402039:	bf 88 36 40 00       	mov    $0x403688,%edi
  40203e:	e8 7d ec ff ff       	callq  400cc0 <puts@plt>
  402043:	bf 07 35 40 00       	mov    $0x403507,%edi
  402048:	e8 73 ec ff ff       	callq  400cc0 <puts@plt>
  40204d:	be 00 00 00 00       	mov    $0x0,%esi
  402052:	bf 00 00 00 00       	mov    $0x0,%edi
  402057:	e8 7e fc ff ff       	callq  401cda <notify_server>
  40205c:	bf 01 00 00 00       	mov    $0x1,%edi
  402061:	e8 ca ed ff ff       	callq  400e30 <exit@plt>

0000000000402066 <illegalhandler>:
  402066:	48 83 ec 08          	sub    $0x8,%rsp
  40206a:	83 3d 97 34 20 00 00 	cmpl   $0x0,0x203497(%rip)        # 605508 <is_checker>
  402071:	74 14                	je     402087 <illegalhandler+0x21>
  402073:	bf 30 35 40 00       	mov    $0x403530,%edi
  402078:	e8 43 ec ff ff       	callq  400cc0 <puts@plt>
  40207d:	b8 00 00 00 00       	mov    $0x0,%eax
  402082:	e8 cc fb ff ff       	callq  401c53 <check_fail>
  402087:	bf b0 36 40 00       	mov    $0x4036b0,%edi
  40208c:	e8 2f ec ff ff       	callq  400cc0 <puts@plt>
  402091:	bf 07 35 40 00       	mov    $0x403507,%edi
  402096:	e8 25 ec ff ff       	callq  400cc0 <puts@plt>
  40209b:	be 00 00 00 00       	mov    $0x0,%esi
  4020a0:	bf 00 00 00 00       	mov    $0x0,%edi
  4020a5:	e8 30 fc ff ff       	callq  401cda <notify_server>
  4020aa:	bf 01 00 00 00       	mov    $0x1,%edi
  4020af:	e8 7c ed ff ff       	callq  400e30 <exit@plt>

00000000004020b4 <sigalrmhandler>:
  4020b4:	48 83 ec 08          	sub    $0x8,%rsp
  4020b8:	83 3d 49 34 20 00 00 	cmpl   $0x0,0x203449(%rip)        # 605508 <is_checker>
  4020bf:	74 14                	je     4020d5 <sigalrmhandler+0x21>
  4020c1:	bf 44 35 40 00       	mov    $0x403544,%edi
  4020c6:	e8 f5 eb ff ff       	callq  400cc0 <puts@plt>
  4020cb:	b8 00 00 00 00       	mov    $0x0,%eax
  4020d0:	e8 7e fb ff ff       	callq  401c53 <check_fail>
  4020d5:	ba 05 00 00 00       	mov    $0x5,%edx
  4020da:	be e0 36 40 00       	mov    $0x4036e0,%esi
  4020df:	bf 01 00 00 00       	mov    $0x1,%edi
  4020e4:	b8 00 00 00 00       	mov    $0x0,%eax
  4020e9:	e8 f2 ec ff ff       	callq  400de0 <__printf_chk@plt>
  4020ee:	be 00 00 00 00       	mov    $0x0,%esi
  4020f3:	bf 00 00 00 00       	mov    $0x0,%edi
  4020f8:	e8 dd fb ff ff       	callq  401cda <notify_server>
  4020fd:	bf 01 00 00 00       	mov    $0x1,%edi
  402102:	e8 29 ed ff ff       	callq  400e30 <exit@plt>

0000000000402107 <launch>:
  402107:	55                   	push   %rbp
  402108:	48 89 e5             	mov    %rsp,%rbp
  40210b:	48 83 ec 10          	sub    $0x10,%rsp
  40210f:	48 89 fa             	mov    %rdi,%rdx
  402112:	64 48 8b 04 25 28 00 	mov    %fs:0x28,%rax
  402119:	00 00 
  40211b:	48 89 45 f8          	mov    %rax,-0x8(%rbp)
  40211f:	31 c0                	xor    %eax,%eax
  402121:	48 8d 47 1e          	lea    0x1e(%rdi),%rax
  402125:	48 83 e0 f0          	and    $0xfffffffffffffff0,%rax
  402129:	48 29 c4             	sub    %rax,%rsp
  40212c:	48 8d 7c 24 0f       	lea    0xf(%rsp),%rdi
  402131:	48 83 e7 f0          	and    $0xfffffffffffffff0,%rdi
  402135:	be f4 00 00 00       	mov    $0xf4,%esi
  40213a:	e8 c1 eb ff ff       	callq  400d00 <memset@plt>
  40213f:	48 8b 05 5a 33 20 00 	mov    0x20335a(%rip),%rax        # 6054a0 <stdin@@GLIBC_2.2.5>
  402146:	48 39 05 a3 33 20 00 	cmp    %rax,0x2033a3(%rip)        # 6054f0 <infile>
  40214d:	74 38                	je     402187 <launch+0x80>
  40214f:	c7 05 a3 33 20 00 00 	movl   $0x0,0x2033a3(%rip)        # 6054fc <vlevel>
  402156:	00 00 00 
  402159:	b8 00 00 00 00       	mov    $0x0,%eax
  40215e:	e8 3b f9 ff ff       	callq  401a9e <test>
  402163:	83 3d 9e 33 20 00 00 	cmpl   $0x0,0x20339e(%rip)        # 605508 <is_checker>
  40216a:	75 31                	jne    40219d <launch+0x96>
  40216c:	bf 64 35 40 00       	mov    $0x403564,%edi
  402171:	e8 4a eb ff ff       	callq  400cc0 <puts@plt>
  402176:	48 8b 45 f8          	mov    -0x8(%rbp),%rax
  40217a:	64 48 33 04 25 28 00 	xor    %fs:0x28,%rax
  402181:	00 00 
  402183:	75 2c                	jne    4021b1 <launch+0xaa>
  402185:	c9                   	leaveq 
  402186:	c3                   	retq   
  402187:	be 4c 35 40 00       	mov    $0x40354c,%esi
  40218c:	bf 01 00 00 00       	mov    $0x1,%edi
  402191:	b8 00 00 00 00       	mov    $0x0,%eax
  402196:	e8 45 ec ff ff       	callq  400de0 <__printf_chk@plt>
  40219b:	eb b2                	jmp    40214f <launch+0x48>
  40219d:	bf 59 35 40 00       	mov    $0x403559,%edi
  4021a2:	e8 19 eb ff ff       	callq  400cc0 <puts@plt>
  4021a7:	b8 00 00 00 00       	mov    $0x0,%eax
  4021ac:	e8 a2 fa ff ff       	callq  401c53 <check_fail>
  4021b1:	e8 2a eb ff ff       	callq  400ce0 <__stack_chk_fail@plt>

00000000004021b6 <stable_launch>:
  4021b6:	53                   	push   %rbx
  4021b7:	48 89 3d 2a 33 20 00 	mov    %rdi,0x20332a(%rip)        # 6054e8 <global_offset>
  4021be:	41 b9 00 00 00 00    	mov    $0x0,%r9d
  4021c4:	41 b8 00 00 00 00    	mov    $0x0,%r8d
  4021ca:	b9 32 01 00 00       	mov    $0x132,%ecx
  4021cf:	ba 07 00 00 00       	mov    $0x7,%edx
  4021d4:	be 00 00 10 00       	mov    $0x100000,%esi
  4021d9:	bf 00 60 58 55       	mov    $0x55586000,%edi
  4021de:	e8 0d eb ff ff       	callq  400cf0 <mmap@plt>
  4021e3:	48 89 c3             	mov    %rax,%rbx
  4021e6:	48 3d 00 60 58 55    	cmp    $0x55586000,%rax
  4021ec:	75 43                	jne    402231 <stable_launch+0x7b>
  4021ee:	48 8d 90 f8 ff 0f 00 	lea    0xffff8(%rax),%rdx
  4021f5:	48 89 15 34 3f 20 00 	mov    %rdx,0x203f34(%rip)        # 606130 <stack_top>
  4021fc:	48 89 e0             	mov    %rsp,%rax
  4021ff:	48 89 d4             	mov    %rdx,%rsp
  402202:	48 89 c2             	mov    %rax,%rdx
  402205:	48 89 15 d4 32 20 00 	mov    %rdx,0x2032d4(%rip)        # 6054e0 <global_save_stack>
  40220c:	48 8b 3d d5 32 20 00 	mov    0x2032d5(%rip),%rdi        # 6054e8 <global_offset>
  402213:	e8 ef fe ff ff       	callq  402107 <launch>
  402218:	48 8b 05 c1 32 20 00 	mov    0x2032c1(%rip),%rax        # 6054e0 <global_save_stack>
  40221f:	48 89 c4             	mov    %rax,%rsp
  402222:	be 00 00 10 00       	mov    $0x100000,%esi
  402227:	48 89 df             	mov    %rbx,%rdi
  40222a:	e8 a1 eb ff ff       	callq  400dd0 <munmap@plt>
  40222f:	5b                   	pop    %rbx
  402230:	c3                   	retq   
  402231:	be 00 00 10 00       	mov    $0x100000,%esi
  402236:	48 89 c7             	mov    %rax,%rdi
  402239:	e8 92 eb ff ff       	callq  400dd0 <munmap@plt>
  40223e:	b9 00 60 58 55       	mov    $0x55586000,%ecx
  402243:	ba 18 37 40 00       	mov    $0x403718,%edx
  402248:	be 01 00 00 00       	mov    $0x1,%esi
  40224d:	48 8b 3d 6c 32 20 00 	mov    0x20326c(%rip),%rdi        # 6054c0 <stderr@@GLIBC_2.2.5>
  402254:	b8 00 00 00 00       	mov    $0x0,%eax
  402259:	e8 f2 eb ff ff       	callq  400e50 <__fprintf_chk@plt>
  40225e:	bf 01 00 00 00       	mov    $0x1,%edi
  402263:	e8 c8 eb ff ff       	callq  400e30 <exit@plt>

0000000000402268 <rio_readinitb>:
  402268:	89 37                	mov    %esi,(%rdi)
  40226a:	c7 47 04 00 00 00 00 	movl   $0x0,0x4(%rdi)
  402271:	48 8d 47 10          	lea    0x10(%rdi),%rax
  402275:	48 89 47 08          	mov    %rax,0x8(%rdi)
  402279:	c3                   	retq   

000000000040227a <sigalrm_handler>:
  40227a:	48 83 ec 08          	sub    $0x8,%rsp
  40227e:	b9 00 00 00 00       	mov    $0x0,%ecx
  402283:	ba 50 37 40 00       	mov    $0x403750,%edx
  402288:	be 01 00 00 00       	mov    $0x1,%esi
  40228d:	48 8b 3d 2c 32 20 00 	mov    0x20322c(%rip),%rdi        # 6054c0 <stderr@@GLIBC_2.2.5>
  402294:	b8 00 00 00 00       	mov    $0x0,%eax
  402299:	e8 b2 eb ff ff       	callq  400e50 <__fprintf_chk@plt>
  40229e:	bf 01 00 00 00       	mov    $0x1,%edi
  4022a3:	e8 88 eb ff ff       	callq  400e30 <exit@plt>

00000000004022a8 <rio_writen>:
  4022a8:	41 55                	push   %r13
  4022aa:	41 54                	push   %r12
  4022ac:	55                   	push   %rbp
  4022ad:	53                   	push   %rbx
  4022ae:	48 83 ec 08          	sub    $0x8,%rsp
  4022b2:	41 89 fc             	mov    %edi,%r12d
  4022b5:	48 89 f5             	mov    %rsi,%rbp
  4022b8:	49 89 d5             	mov    %rdx,%r13
  4022bb:	48 89 d3             	mov    %rdx,%rbx
  4022be:	eb 06                	jmp    4022c6 <rio_writen+0x1e>
  4022c0:	48 29 c3             	sub    %rax,%rbx
  4022c3:	48 01 c5             	add    %rax,%rbp
  4022c6:	48 85 db             	test   %rbx,%rbx
  4022c9:	74 24                	je     4022ef <rio_writen+0x47>
  4022cb:	48 89 da             	mov    %rbx,%rdx
  4022ce:	48 89 ee             	mov    %rbp,%rsi
  4022d1:	44 89 e7             	mov    %r12d,%edi
  4022d4:	e8 f7 e9 ff ff       	callq  400cd0 <write@plt>
  4022d9:	48 85 c0             	test   %rax,%rax
  4022dc:	7f e2                	jg     4022c0 <rio_writen+0x18>
  4022de:	e8 9d e9 ff ff       	callq  400c80 <__errno_location@plt>
  4022e3:	83 38 04             	cmpl   $0x4,(%rax)
  4022e6:	75 15                	jne    4022fd <rio_writen+0x55>
  4022e8:	b8 00 00 00 00       	mov    $0x0,%eax
  4022ed:	eb d1                	jmp    4022c0 <rio_writen+0x18>
  4022ef:	4c 89 e8             	mov    %r13,%rax
  4022f2:	48 83 c4 08          	add    $0x8,%rsp
  4022f6:	5b                   	pop    %rbx
  4022f7:	5d                   	pop    %rbp
  4022f8:	41 5c                	pop    %r12
  4022fa:	41 5d                	pop    %r13
  4022fc:	c3                   	retq   
  4022fd:	48 c7 c0 ff ff ff ff 	mov    $0xffffffffffffffff,%rax
  402304:	eb ec                	jmp    4022f2 <rio_writen+0x4a>

0000000000402306 <rio_read>:
  402306:	41 55                	push   %r13
  402308:	41 54                	push   %r12
  40230a:	55                   	push   %rbp
  40230b:	53                   	push   %rbx
  40230c:	48 83 ec 08          	sub    $0x8,%rsp
  402310:	48 89 fb             	mov    %rdi,%rbx
  402313:	49 89 f5             	mov    %rsi,%r13
  402316:	49 89 d4             	mov    %rdx,%r12
  402319:	eb 0a                	jmp    402325 <rio_read+0x1f>
  40231b:	e8 60 e9 ff ff       	callq  400c80 <__errno_location@plt>
  402320:	83 38 04             	cmpl   $0x4,(%rax)
  402323:	75 5c                	jne    402381 <rio_read+0x7b>
  402325:	8b 6b 04             	mov    0x4(%rbx),%ebp
  402328:	85 ed                	test   %ebp,%ebp
  40232a:	7f 24                	jg     402350 <rio_read+0x4a>
  40232c:	48 8d 6b 10          	lea    0x10(%rbx),%rbp
  402330:	8b 3b                	mov    (%rbx),%edi
  402332:	ba 00 20 00 00       	mov    $0x2000,%edx
  402337:	48 89 ee             	mov    %rbp,%rsi
  40233a:	e8 f1 e9 ff ff       	callq  400d30 <read@plt>
  40233f:	89 43 04             	mov    %eax,0x4(%rbx)
  402342:	85 c0                	test   %eax,%eax
  402344:	78 d5                	js     40231b <rio_read+0x15>
  402346:	85 c0                	test   %eax,%eax
  402348:	74 40                	je     40238a <rio_read+0x84>
  40234a:	48 89 6b 08          	mov    %rbp,0x8(%rbx)
  40234e:	eb d5                	jmp    402325 <rio_read+0x1f>
  402350:	89 e8                	mov    %ebp,%eax
  402352:	4c 39 e0             	cmp    %r12,%rax
  402355:	72 03                	jb     40235a <rio_read+0x54>
  402357:	44 89 e5             	mov    %r12d,%ebp
  40235a:	4c 63 e5             	movslq %ebp,%r12
  40235d:	48 8b 73 08          	mov    0x8(%rbx),%rsi
  402361:	4c 89 e2             	mov    %r12,%rdx
  402364:	4c 89 ef             	mov    %r13,%rdi
  402367:	e8 14 ea ff ff       	callq  400d80 <memcpy@plt>
  40236c:	4c 01 63 08          	add    %r12,0x8(%rbx)
  402370:	29 6b 04             	sub    %ebp,0x4(%rbx)
  402373:	4c 89 e0             	mov    %r12,%rax
  402376:	48 83 c4 08          	add    $0x8,%rsp
  40237a:	5b                   	pop    %rbx
  40237b:	5d                   	pop    %rbp
  40237c:	41 5c                	pop    %r12
  40237e:	41 5d                	pop    %r13
  402380:	c3                   	retq   
  402381:	48 c7 c0 ff ff ff ff 	mov    $0xffffffffffffffff,%rax
  402388:	eb ec                	jmp    402376 <rio_read+0x70>
  40238a:	b8 00 00 00 00       	mov    $0x0,%eax
  40238f:	eb e5                	jmp    402376 <rio_read+0x70>

0000000000402391 <rio_readlineb>:
  402391:	41 55                	push   %r13
  402393:	41 54                	push   %r12
  402395:	55                   	push   %rbp
  402396:	53                   	push   %rbx
  402397:	48 83 ec 18          	sub    $0x18,%rsp
  40239b:	49 89 fd             	mov    %rdi,%r13
  40239e:	48 89 f5             	mov    %rsi,%rbp
  4023a1:	49 89 d4             	mov    %rdx,%r12
  4023a4:	64 48 8b 04 25 28 00 	mov    %fs:0x28,%rax
  4023ab:	00 00 
  4023ad:	48 89 44 24 08       	mov    %rax,0x8(%rsp)
  4023b2:	31 c0                	xor    %eax,%eax
  4023b4:	bb 01 00 00 00       	mov    $0x1,%ebx
  4023b9:	4c 39 e3             	cmp    %r12,%rbx
  4023bc:	73 47                	jae    402405 <rio_readlineb+0x74>
  4023be:	ba 01 00 00 00       	mov    $0x1,%edx
  4023c3:	48 8d 74 24 07       	lea    0x7(%rsp),%rsi
  4023c8:	4c 89 ef             	mov    %r13,%rdi
  4023cb:	e8 36 ff ff ff       	callq  402306 <rio_read>
  4023d0:	83 f8 01             	cmp    $0x1,%eax
  4023d3:	75 1c                	jne    4023f1 <rio_readlineb+0x60>
  4023d5:	48 8d 45 01          	lea    0x1(%rbp),%rax
  4023d9:	0f b6 54 24 07       	movzbl 0x7(%rsp),%edx
  4023de:	88 55 00             	mov    %dl,0x0(%rbp)
  4023e1:	80 7c 24 07 0a       	cmpb   $0xa,0x7(%rsp)
  4023e6:	74 1a                	je     402402 <rio_readlineb+0x71>
  4023e8:	48 83 c3 01          	add    $0x1,%rbx
  4023ec:	48 89 c5             	mov    %rax,%rbp
  4023ef:	eb c8                	jmp    4023b9 <rio_readlineb+0x28>
  4023f1:	85 c0                	test   %eax,%eax
  4023f3:	75 32                	jne    402427 <rio_readlineb+0x96>
  4023f5:	48 83 fb 01          	cmp    $0x1,%rbx
  4023f9:	75 0a                	jne    402405 <rio_readlineb+0x74>
  4023fb:	b8 00 00 00 00       	mov    $0x0,%eax
  402400:	eb 0a                	jmp    40240c <rio_readlineb+0x7b>
  402402:	48 89 c5             	mov    %rax,%rbp
  402405:	c6 45 00 00          	movb   $0x0,0x0(%rbp)
  402409:	48 89 d8             	mov    %rbx,%rax
  40240c:	48 8b 4c 24 08       	mov    0x8(%rsp),%rcx
  402411:	64 48 33 0c 25 28 00 	xor    %fs:0x28,%rcx
  402418:	00 00 
  40241a:	75 14                	jne    402430 <rio_readlineb+0x9f>
  40241c:	48 83 c4 18          	add    $0x18,%rsp
  402420:	5b                   	pop    %rbx
  402421:	5d                   	pop    %rbp
  402422:	41 5c                	pop    %r12
  402424:	41 5d                	pop    %r13
  402426:	c3                   	retq   
  402427:	48 c7 c0 ff ff ff ff 	mov    $0xffffffffffffffff,%rax
  40242e:	eb dc                	jmp    40240c <rio_readlineb+0x7b>
  402430:	e8 ab e8 ff ff       	callq  400ce0 <__stack_chk_fail@plt>

0000000000402435 <urlencode>:
  402435:	41 54                	push   %r12
  402437:	55                   	push   %rbp
  402438:	53                   	push   %rbx
  402439:	48 83 ec 10          	sub    $0x10,%rsp
  40243d:	48 89 fb             	mov    %rdi,%rbx
  402440:	48 89 f5             	mov    %rsi,%rbp
  402443:	64 48 8b 04 25 28 00 	mov    %fs:0x28,%rax
  40244a:	00 00 
  40244c:	48 89 44 24 08       	mov    %rax,0x8(%rsp)
  402451:	31 c0                	xor    %eax,%eax
  402453:	48 c7 c1 ff ff ff ff 	mov    $0xffffffffffffffff,%rcx
  40245a:	f2 ae                	repnz scas %es:(%rdi),%al
  40245c:	48 89 ce             	mov    %rcx,%rsi
  40245f:	48 f7 d6             	not    %rsi
  402462:	8d 46 ff             	lea    -0x1(%rsi),%eax
  402465:	eb 0f                	jmp    402476 <urlencode+0x41>
  402467:	44 88 45 00          	mov    %r8b,0x0(%rbp)
  40246b:	48 8d 6d 01          	lea    0x1(%rbp),%rbp
  40246f:	48 83 c3 01          	add    $0x1,%rbx
  402473:	44 89 e0             	mov    %r12d,%eax
  402476:	44 8d 60 ff          	lea    -0x1(%rax),%r12d
  40247a:	85 c0                	test   %eax,%eax
  40247c:	0f 84 a6 00 00 00    	je     402528 <urlencode+0xf3>
  402482:	44 0f b6 03          	movzbl (%rbx),%r8d
  402486:	41 80 f8 2a          	cmp    $0x2a,%r8b
  40248a:	0f 94 c2             	sete   %dl
  40248d:	41 80 f8 2d          	cmp    $0x2d,%r8b
  402491:	0f 94 c0             	sete   %al
  402494:	08 c2                	or     %al,%dl
  402496:	75 cf                	jne    402467 <urlencode+0x32>
  402498:	41 80 f8 2e          	cmp    $0x2e,%r8b
  40249c:	74 c9                	je     402467 <urlencode+0x32>
  40249e:	41 80 f8 5f          	cmp    $0x5f,%r8b
  4024a2:	74 c3                	je     402467 <urlencode+0x32>
  4024a4:	41 8d 40 d0          	lea    -0x30(%r8),%eax
  4024a8:	3c 09                	cmp    $0x9,%al
  4024aa:	76 bb                	jbe    402467 <urlencode+0x32>
  4024ac:	41 8d 40 bf          	lea    -0x41(%r8),%eax
  4024b0:	3c 19                	cmp    $0x19,%al
  4024b2:	76 b3                	jbe    402467 <urlencode+0x32>
  4024b4:	41 8d 40 9f          	lea    -0x61(%r8),%eax
  4024b8:	3c 19                	cmp    $0x19,%al
  4024ba:	76 ab                	jbe    402467 <urlencode+0x32>
  4024bc:	41 80 f8 20          	cmp    $0x20,%r8b
  4024c0:	74 54                	je     402516 <urlencode+0xe1>
  4024c2:	41 8d 40 e0          	lea    -0x20(%r8),%eax
  4024c6:	3c 5f                	cmp    $0x5f,%al
  4024c8:	0f 96 c2             	setbe  %dl
  4024cb:	41 80 f8 09          	cmp    $0x9,%r8b
  4024cf:	0f 94 c0             	sete   %al
  4024d2:	08 c2                	or     %al,%dl
  4024d4:	74 4d                	je     402523 <urlencode+0xee>
  4024d6:	45 0f b6 c0          	movzbl %r8b,%r8d
  4024da:	b9 e8 37 40 00       	mov    $0x4037e8,%ecx
  4024df:	ba 08 00 00 00       	mov    $0x8,%edx
  4024e4:	be 01 00 00 00       	mov    $0x1,%esi
  4024e9:	48 89 e7             	mov    %rsp,%rdi
  4024ec:	b8 00 00 00 00       	mov    $0x0,%eax
  4024f1:	e8 6a e9 ff ff       	callq  400e60 <__sprintf_chk@plt>
  4024f6:	0f b6 04 24          	movzbl (%rsp),%eax
  4024fa:	88 45 00             	mov    %al,0x0(%rbp)
  4024fd:	0f b6 44 24 01       	movzbl 0x1(%rsp),%eax
  402502:	88 45 01             	mov    %al,0x1(%rbp)
  402505:	0f b6 44 24 02       	movzbl 0x2(%rsp),%eax
  40250a:	88 45 02             	mov    %al,0x2(%rbp)
  40250d:	48 8d 6d 03          	lea    0x3(%rbp),%rbp
  402511:	e9 59 ff ff ff       	jmpq   40246f <urlencode+0x3a>
  402516:	c6 45 00 2b          	movb   $0x2b,0x0(%rbp)
  40251a:	48 8d 6d 01          	lea    0x1(%rbp),%rbp
  40251e:	e9 4c ff ff ff       	jmpq   40246f <urlencode+0x3a>
  402523:	b8 ff ff ff ff       	mov    $0xffffffff,%eax
  402528:	48 8b 74 24 08       	mov    0x8(%rsp),%rsi
  40252d:	64 48 33 34 25 28 00 	xor    %fs:0x28,%rsi
  402534:	00 00 
  402536:	75 09                	jne    402541 <urlencode+0x10c>
  402538:	48 83 c4 10          	add    $0x10,%rsp
  40253c:	5b                   	pop    %rbx
  40253d:	5d                   	pop    %rbp
  40253e:	41 5c                	pop    %r12
  402540:	c3                   	retq   
  402541:	e8 9a e7 ff ff       	callq  400ce0 <__stack_chk_fail@plt>

0000000000402546 <submitr>:
  402546:	41 57                	push   %r15
  402548:	41 56                	push   %r14
  40254a:	41 55                	push   %r13
  40254c:	41 54                	push   %r12
  40254e:	55                   	push   %rbp
  40254f:	53                   	push   %rbx
  402550:	48 81 ec 58 a0 00 00 	sub    $0xa058,%rsp
  402557:	49 89 fc             	mov    %rdi,%r12
  40255a:	89 74 24 04          	mov    %esi,0x4(%rsp)
  40255e:	49 89 d7             	mov    %rdx,%r15
  402561:	49 89 ce             	mov    %rcx,%r14
  402564:	4c 89 44 24 08       	mov    %r8,0x8(%rsp)
  402569:	4d 89 cd             	mov    %r9,%r13
  40256c:	48 8b ac 24 90 a0 00 	mov    0xa090(%rsp),%rbp
  402573:	00 
  402574:	64 48 8b 04 25 28 00 	mov    %fs:0x28,%rax
  40257b:	00 00 
  40257d:	48 89 84 24 48 a0 00 	mov    %rax,0xa048(%rsp)
  402584:	00 
  402585:	31 c0                	xor    %eax,%eax
  402587:	c7 44 24 1c 00 00 00 	movl   $0x0,0x1c(%rsp)
  40258e:	00 
  40258f:	ba 00 00 00 00       	mov    $0x0,%edx
  402594:	be 01 00 00 00       	mov    $0x1,%esi
  402599:	bf 02 00 00 00       	mov    $0x2,%edi
  40259e:	e8 cd e8 ff ff       	callq  400e70 <socket@plt>
  4025a3:	85 c0                	test   %eax,%eax
  4025a5:	0f 88 9b 02 00 00    	js     402846 <submitr+0x300>
  4025ab:	89 c3                	mov    %eax,%ebx
  4025ad:	4c 89 e7             	mov    %r12,%rdi
  4025b0:	e8 9b e7 ff ff       	callq  400d50 <gethostbyname@plt>
  4025b5:	48 85 c0             	test   %rax,%rax
  4025b8:	0f 84 d4 02 00 00    	je     402892 <submitr+0x34c>
  4025be:	48 c7 44 24 22 00 00 	movq   $0x0,0x22(%rsp)
  4025c5:	00 00 
  4025c7:	c7 44 24 2a 00 00 00 	movl   $0x0,0x2a(%rsp)
  4025ce:	00 
  4025cf:	66 c7 44 24 2e 00 00 	movw   $0x0,0x2e(%rsp)
  4025d6:	66 c7 44 24 20 02 00 	movw   $0x2,0x20(%rsp)
  4025dd:	48 63 50 14          	movslq 0x14(%rax),%rdx
  4025e1:	48 8b 40 18          	mov    0x18(%rax),%rax
  4025e5:	48 8b 30             	mov    (%rax),%rsi
  4025e8:	48 8d 7c 24 24       	lea    0x24(%rsp),%rdi
  4025ed:	b9 0c 00 00 00       	mov    $0xc,%ecx
  4025f2:	e8 69 e7 ff ff       	callq  400d60 <__memmove_chk@plt>
  4025f7:	0f b7 44 24 04       	movzwl 0x4(%rsp),%eax
  4025fc:	66 c1 c8 08          	ror    $0x8,%ax
  402600:	66 89 44 24 22       	mov    %ax,0x22(%rsp)
  402605:	ba 10 00 00 00       	mov    $0x10,%edx
  40260a:	48 8d 74 24 20       	lea    0x20(%rsp),%rsi
  40260f:	89 df                	mov    %ebx,%edi
  402611:	e8 2a e8 ff ff       	callq  400e40 <connect@plt>
  402616:	85 c0                	test   %eax,%eax
  402618:	0f 88 dc 02 00 00    	js     4028fa <submitr+0x3b4>
  40261e:	48 c7 c6 ff ff ff ff 	mov    $0xffffffffffffffff,%rsi
  402625:	b8 00 00 00 00       	mov    $0x0,%eax
  40262a:	48 89 f1             	mov    %rsi,%rcx
  40262d:	4c 89 ef             	mov    %r13,%rdi
  402630:	f2 ae                	repnz scas %es:(%rdi),%al
  402632:	48 89 ca             	mov    %rcx,%rdx
  402635:	48 f7 d2             	not    %rdx
  402638:	48 89 f1             	mov    %rsi,%rcx
  40263b:	4c 89 ff             	mov    %r15,%rdi
  40263e:	f2 ae                	repnz scas %es:(%rdi),%al
  402640:	48 f7 d1             	not    %rcx
  402643:	49 89 c8             	mov    %rcx,%r8
  402646:	48 89 f1             	mov    %rsi,%rcx
  402649:	4c 89 f7             	mov    %r14,%rdi
  40264c:	f2 ae                	repnz scas %es:(%rdi),%al
  40264e:	48 f7 d1             	not    %rcx
  402651:	4d 8d 44 08 fe       	lea    -0x2(%r8,%rcx,1),%r8
  402656:	48 89 f1             	mov    %rsi,%rcx
  402659:	48 8b 7c 24 08       	mov    0x8(%rsp),%rdi
  40265e:	f2 ae                	repnz scas %es:(%rdi),%al
  402660:	48 89 c8             	mov    %rcx,%rax
  402663:	48 f7 d0             	not    %rax
  402666:	49 8d 4c 00 ff       	lea    -0x1(%r8,%rax,1),%rcx
  40266b:	48 8d 44 52 fd       	lea    -0x3(%rdx,%rdx,2),%rax
  402670:	48 8d 84 01 80 00 00 	lea    0x80(%rcx,%rax,1),%rax
  402677:	00 
  402678:	48 3d 00 20 00 00    	cmp    $0x2000,%rax
  40267e:	0f 87 d0 02 00 00    	ja     402954 <submitr+0x40e>
  402684:	48 8d b4 24 40 40 00 	lea    0x4040(%rsp),%rsi
  40268b:	00 
  40268c:	b9 00 04 00 00       	mov    $0x400,%ecx
  402691:	b8 00 00 00 00       	mov    $0x0,%eax
  402696:	48 89 f7             	mov    %rsi,%rdi
  402699:	f3 48 ab             	rep stos %rax,%es:(%rdi)
  40269c:	4c 89 ef             	mov    %r13,%rdi
  40269f:	e8 91 fd ff ff       	callq  402435 <urlencode>
  4026a4:	85 c0                	test   %eax,%eax
  4026a6:	0f 88 1b 03 00 00    	js     4029c7 <submitr+0x481>
  4026ac:	4c 8d ac 24 40 20 00 	lea    0x2040(%rsp),%r13
  4026b3:	00 
  4026b4:	41 54                	push   %r12
  4026b6:	48 8d 84 24 48 40 00 	lea    0x4048(%rsp),%rax
  4026bd:	00 
  4026be:	50                   	push   %rax
  4026bf:	4d 89 f9             	mov    %r15,%r9
  4026c2:	4d 89 f0             	mov    %r14,%r8
  4026c5:	b9 78 37 40 00       	mov    $0x403778,%ecx
  4026ca:	ba 00 20 00 00       	mov    $0x2000,%edx
  4026cf:	be 01 00 00 00       	mov    $0x1,%esi
  4026d4:	4c 89 ef             	mov    %r13,%rdi
  4026d7:	b8 00 00 00 00       	mov    $0x0,%eax
  4026dc:	e8 7f e7 ff ff       	callq  400e60 <__sprintf_chk@plt>
  4026e1:	48 c7 c1 ff ff ff ff 	mov    $0xffffffffffffffff,%rcx
  4026e8:	b8 00 00 00 00       	mov    $0x0,%eax
  4026ed:	4c 89 ef             	mov    %r13,%rdi
  4026f0:	f2 ae                	repnz scas %es:(%rdi),%al
  4026f2:	48 89 ca             	mov    %rcx,%rdx
  4026f5:	48 f7 d2             	not    %rdx
  4026f8:	48 8d 52 ff          	lea    -0x1(%rdx),%rdx
  4026fc:	4c 89 ee             	mov    %r13,%rsi
  4026ff:	89 df                	mov    %ebx,%edi
  402701:	e8 a2 fb ff ff       	callq  4022a8 <rio_writen>
  402706:	48 83 c4 10          	add    $0x10,%rsp
  40270a:	48 85 c0             	test   %rax,%rax
  40270d:	0f 88 3f 03 00 00    	js     402a52 <submitr+0x50c>
  402713:	89 de                	mov    %ebx,%esi
  402715:	48 8d 7c 24 30       	lea    0x30(%rsp),%rdi
  40271a:	e8 49 fb ff ff       	callq  402268 <rio_readinitb>
  40271f:	ba 00 20 00 00       	mov    $0x2000,%edx
  402724:	48 8d b4 24 40 20 00 	lea    0x2040(%rsp),%rsi
  40272b:	00 
  40272c:	48 8d 7c 24 30       	lea    0x30(%rsp),%rdi
  402731:	e8 5b fc ff ff       	callq  402391 <rio_readlineb>
  402736:	48 85 c0             	test   %rax,%rax
  402739:	0f 8e 82 03 00 00    	jle    402ac1 <submitr+0x57b>
  40273f:	4c 8d 84 24 40 80 00 	lea    0x8040(%rsp),%r8
  402746:	00 
  402747:	48 8d 4c 24 1c       	lea    0x1c(%rsp),%rcx
  40274c:	48 8d 94 24 40 60 00 	lea    0x6040(%rsp),%rdx
  402753:	00 
  402754:	be ef 37 40 00       	mov    $0x4037ef,%esi
  402759:	48 8d bc 24 40 20 00 	lea    0x2040(%rsp),%rdi
  402760:	00 
  402761:	b8 00 00 00 00       	mov    $0x0,%eax
  402766:	e8 55 e6 ff ff       	callq  400dc0 <__isoc99_sscanf@plt>
  40276b:	48 8d b4 24 40 20 00 	lea    0x2040(%rsp),%rsi
  402772:	00 
  402773:	bf 06 38 40 00       	mov    $0x403806,%edi
  402778:	b9 03 00 00 00       	mov    $0x3,%ecx
  40277d:	f3 a6                	repz cmpsb %es:(%rdi),%ds:(%rsi)
  40277f:	0f 97 c0             	seta   %al
  402782:	1c 00                	sbb    $0x0,%al
  402784:	84 c0                	test   %al,%al
  402786:	0f 84 b3 03 00 00    	je     402b3f <submitr+0x5f9>
  40278c:	ba 00 20 00 00       	mov    $0x2000,%edx
  402791:	48 8d b4 24 40 20 00 	lea    0x2040(%rsp),%rsi
  402798:	00 
  402799:	48 8d 7c 24 30       	lea    0x30(%rsp),%rdi
  40279e:	e8 ee fb ff ff       	callq  402391 <rio_readlineb>
  4027a3:	48 85 c0             	test   %rax,%rax
  4027a6:	7f c3                	jg     40276b <submitr+0x225>
  4027a8:	48 b8 45 72 72 6f 72 	movabs $0x43203a726f727245,%rax
  4027af:	3a 20 43 
  4027b2:	48 ba 6c 69 65 6e 74 	movabs $0x6e7520746e65696c,%rdx
  4027b9:	20 75 6e 
  4027bc:	48 89 45 00          	mov    %rax,0x0(%rbp)
  4027c0:	48 89 55 08          	mov    %rdx,0x8(%rbp)
  4027c4:	48 b8 61 62 6c 65 20 	movabs $0x206f7420656c6261,%rax
  4027cb:	74 6f 20 
  4027ce:	48 ba 72 65 61 64 20 	movabs $0x6165682064616572,%rdx
  4027d5:	68 65 61 
  4027d8:	48 89 45 10          	mov    %rax,0x10(%rbp)
  4027dc:	48 89 55 18          	mov    %rdx,0x18(%rbp)
  4027e0:	48 b8 64 65 72 73 20 	movabs $0x6f72662073726564,%rax
  4027e7:	66 72 6f 
  4027ea:	48 ba 6d 20 74 68 65 	movabs $0x657220656874206d,%rdx
  4027f1:	20 72 65 
  4027f4:	48 89 45 20          	mov    %rax,0x20(%rbp)
  4027f8:	48 89 55 28          	mov    %rdx,0x28(%rbp)
  4027fc:	48 b8 73 75 6c 74 20 	movabs $0x72657320746c7573,%rax
  402803:	73 65 72 
  402806:	48 89 45 30          	mov    %rax,0x30(%rbp)
  40280a:	c7 45 38 76 65 72 00 	movl   $0x726576,0x38(%rbp)
  402811:	89 df                	mov    %ebx,%edi
  402813:	e8 08 e5 ff ff       	callq  400d20 <close@plt>
  402818:	b8 ff ff ff ff       	mov    $0xffffffff,%eax
  40281d:	48 8b 9c 24 48 a0 00 	mov    0xa048(%rsp),%rbx
  402824:	00 
  402825:	64 48 33 1c 25 28 00 	xor    %fs:0x28,%rbx
  40282c:	00 00 
  40282e:	0f 85 76 04 00 00    	jne    402caa <submitr+0x764>
  402834:	48 81 c4 58 a0 00 00 	add    $0xa058,%rsp
  40283b:	5b                   	pop    %rbx
  40283c:	5d                   	pop    %rbp
  40283d:	41 5c                	pop    %r12
  40283f:	41 5d                	pop    %r13
  402841:	41 5e                	pop    %r14
  402843:	41 5f                	pop    %r15
  402845:	c3                   	retq   
  402846:	48 b8 45 72 72 6f 72 	movabs $0x43203a726f727245,%rax
  40284d:	3a 20 43 
  402850:	48 ba 6c 69 65 6e 74 	movabs $0x6e7520746e65696c,%rdx
  402857:	20 75 6e 
  40285a:	48 89 45 00          	mov    %rax,0x0(%rbp)
  40285e:	48 89 55 08          	mov    %rdx,0x8(%rbp)
  402862:	48 b8 61 62 6c 65 20 	movabs $0x206f7420656c6261,%rax
  402869:	74 6f 20 
  40286c:	48 ba 63 72 65 61 74 	movabs $0x7320657461657263,%rdx
  402873:	65 20 73 
  402876:	48 89 45 10          	mov    %rax,0x10(%rbp)
  40287a:	48 89 55 18          	mov    %rdx,0x18(%rbp)
  40287e:	c7 45 20 6f 63 6b 65 	movl   $0x656b636f,0x20(%rbp)
  402885:	66 c7 45 24 74 00    	movw   $0x74,0x24(%rbp)
  40288b:	b8 ff ff ff ff       	mov    $0xffffffff,%eax
  402890:	eb 8b                	jmp    40281d <submitr+0x2d7>
  402892:	48 b8 45 72 72 6f 72 	movabs $0x44203a726f727245,%rax
  402899:	3a 20 44 
  40289c:	48 ba 4e 53 20 69 73 	movabs $0x6e7520736920534e,%rdx
  4028a3:	20 75 6e 
  4028a6:	48 89 45 00          	mov    %rax,0x0(%rbp)
  4028aa:	48 89 55 08          	mov    %rdx,0x8(%rbp)
  4028ae:	48 b8 61 62 6c 65 20 	movabs $0x206f7420656c6261,%rax
  4028b5:	74 6f 20 
  4028b8:	48 ba 72 65 73 6f 6c 	movabs $0x2065766c6f736572,%rdx
  4028bf:	76 65 20 
  4028c2:	48 89 45 10          	mov    %rax,0x10(%rbp)
  4028c6:	48 89 55 18          	mov    %rdx,0x18(%rbp)
  4028ca:	48 b8 73 65 72 76 65 	movabs $0x6120726576726573,%rax
  4028d1:	72 20 61 
  4028d4:	48 89 45 20          	mov    %rax,0x20(%rbp)
  4028d8:	c7 45 28 64 64 72 65 	movl   $0x65726464,0x28(%rbp)
  4028df:	66 c7 45 2c 73 73    	movw   $0x7373,0x2c(%rbp)
  4028e5:	c6 45 2e 00          	movb   $0x0,0x2e(%rbp)
  4028e9:	89 df                	mov    %ebx,%edi
  4028eb:	e8 30 e4 ff ff       	callq  400d20 <close@plt>
  4028f0:	b8 ff ff ff ff       	mov    $0xffffffff,%eax
  4028f5:	e9 23 ff ff ff       	jmpq   40281d <submitr+0x2d7>
  4028fa:	48 b8 45 72 72 6f 72 	movabs $0x55203a726f727245,%rax
  402901:	3a 20 55 
  402904:	48 ba 6e 61 62 6c 65 	movabs $0x6f7420656c62616e,%rdx
  40290b:	20 74 6f 
  40290e:	48 89 45 00          	mov    %rax,0x0(%rbp)
  402912:	48 89 55 08          	mov    %rdx,0x8(%rbp)
  402916:	48 b8 20 63 6f 6e 6e 	movabs $0x7463656e6e6f6320,%rax
  40291d:	65 63 74 
  402920:	48 ba 20 74 6f 20 74 	movabs $0x20656874206f7420,%rdx
  402927:	68 65 20 
  40292a:	48 89 45 10          	mov    %rax,0x10(%rbp)
  40292e:	48 89 55 18          	mov    %rdx,0x18(%rbp)
  402932:	c7 45 20 73 65 72 76 	movl   $0x76726573,0x20(%rbp)
  402939:	66 c7 45 24 65 72    	movw   $0x7265,0x24(%rbp)
  40293f:	c6 45 26 00          	movb   $0x0,0x26(%rbp)
  402943:	89 df                	mov    %ebx,%edi
  402945:	e8 d6 e3 ff ff       	callq  400d20 <close@plt>
  40294a:	b8 ff ff ff ff       	mov    $0xffffffff,%eax
  40294f:	e9 c9 fe ff ff       	jmpq   40281d <submitr+0x2d7>
  402954:	48 b8 45 72 72 6f 72 	movabs $0x52203a726f727245,%rax
  40295b:	3a 20 52 
  40295e:	48 ba 65 73 75 6c 74 	movabs $0x747320746c757365,%rdx
  402965:	20 73 74 
  402968:	48 89 45 00          	mov    %rax,0x0(%rbp)
  40296c:	48 89 55 08          	mov    %rdx,0x8(%rbp)
  402970:	48 b8 72 69 6e 67 20 	movabs $0x6f6f7420676e6972,%rax
  402977:	74 6f 6f 
  40297a:	48 ba 20 6c 61 72 67 	movabs $0x202e656772616c20,%rdx
  402981:	65 2e 20 
  402984:	48 89 45 10          	mov    %rax,0x10(%rbp)
  402988:	48 89 55 18          	mov    %rdx,0x18(%rbp)
  40298c:	48 b8 49 6e 63 72 65 	movabs $0x6573616572636e49,%rax
  402993:	61 73 65 
  402996:	48 ba 20 53 55 42 4d 	movabs $0x5254494d42555320,%rdx
  40299d:	49 54 52 
  4029a0:	48 89 45 20          	mov    %rax,0x20(%rbp)
  4029a4:	48 89 55 28          	mov    %rdx,0x28(%rbp)
  4029a8:	48 b8 5f 4d 41 58 42 	movabs $0x46554258414d5f,%rax
  4029af:	55 46 00 
  4029b2:	48 89 45 30          	mov    %rax,0x30(%rbp)
  4029b6:	89 df                	mov    %ebx,%edi
  4029b8:	e8 63 e3 ff ff       	callq  400d20 <close@plt>
  4029bd:	b8 ff ff ff ff       	mov    $0xffffffff,%eax
  4029c2:	e9 56 fe ff ff       	jmpq   40281d <submitr+0x2d7>
  4029c7:	48 b8 45 72 72 6f 72 	movabs $0x52203a726f727245,%rax
  4029ce:	3a 20 52 
  4029d1:	48 ba 65 73 75 6c 74 	movabs $0x747320746c757365,%rdx
  4029d8:	20 73 74 
  4029db:	48 89 45 00          	mov    %rax,0x0(%rbp)
  4029df:	48 89 55 08          	mov    %rdx,0x8(%rbp)
  4029e3:	48 b8 72 69 6e 67 20 	movabs $0x6e6f6320676e6972,%rax
  4029ea:	63 6f 6e 
  4029ed:	48 ba 74 61 69 6e 73 	movabs $0x6e6120736e696174,%rdx
  4029f4:	20 61 6e 
  4029f7:	48 89 45 10          	mov    %rax,0x10(%rbp)
  4029fb:	48 89 55 18          	mov    %rdx,0x18(%rbp)
  4029ff:	48 b8 20 69 6c 6c 65 	movabs $0x6c6167656c6c6920,%rax
  402a06:	67 61 6c 
  402a09:	48 ba 20 6f 72 20 75 	movabs $0x72706e7520726f20,%rdx
  402a10:	6e 70 72 
  402a13:	48 89 45 20          	mov    %rax,0x20(%rbp)
  402a17:	48 89 55 28          	mov    %rdx,0x28(%rbp)
  402a1b:	48 b8 69 6e 74 61 62 	movabs $0x20656c6261746e69,%rax
  402a22:	6c 65 20 
  402a25:	48 ba 63 68 61 72 61 	movabs $0x6574636172616863,%rdx
  402a2c:	63 74 65 
  402a2f:	48 89 45 30          	mov    %rax,0x30(%rbp)
  402a33:	48 89 55 38          	mov    %rdx,0x38(%rbp)
  402a37:	66 c7 45 40 72 2e    	movw   $0x2e72,0x40(%rbp)
  402a3d:	c6 45 42 00          	movb   $0x0,0x42(%rbp)
  402a41:	89 df                	mov    %ebx,%edi
  402a43:	e8 d8 e2 ff ff       	callq  400d20 <close@plt>
  402a48:	b8 ff ff ff ff       	mov    $0xffffffff,%eax
  402a4d:	e9 cb fd ff ff       	jmpq   40281d <submitr+0x2d7>
  402a52:	48 b8 45 72 72 6f 72 	movabs $0x43203a726f727245,%rax
  402a59:	3a 20 43 
  402a5c:	48 ba 6c 69 65 6e 74 	movabs $0x6e7520746e65696c,%rdx
  402a63:	20 75 6e 
  402a66:	48 89 45 00          	mov    %rax,0x0(%rbp)
  402a6a:	48 89 55 08          	mov    %rdx,0x8(%rbp)
  402a6e:	48 b8 61 62 6c 65 20 	movabs $0x206f7420656c6261,%rax
  402a75:	74 6f 20 
  402a78:	48 ba 77 72 69 74 65 	movabs $0x6f74206574697277,%rdx
  402a7f:	20 74 6f 
  402a82:	48 89 45 10          	mov    %rax,0x10(%rbp)
  402a86:	48 89 55 18          	mov    %rdx,0x18(%rbp)
  402a8a:	48 b8 20 74 68 65 20 	movabs $0x7365722065687420,%rax
  402a91:	72 65 73 
  402a94:	48 ba 75 6c 74 20 73 	movabs $0x7672657320746c75,%rdx
  402a9b:	65 72 76 
  402a9e:	48 89 45 20          	mov    %rax,0x20(%rbp)
  402aa2:	48 89 55 28          	mov    %rdx,0x28(%rbp)
  402aa6:	66 c7 45 30 65 72    	movw   $0x7265,0x30(%rbp)
  402aac:	c6 45 32 00          	movb   $0x0,0x32(%rbp)
  402ab0:	89 df                	mov    %ebx,%edi
  402ab2:	e8 69 e2 ff ff       	callq  400d20 <close@plt>
  402ab7:	b8 ff ff ff ff       	mov    $0xffffffff,%eax
  402abc:	e9 5c fd ff ff       	jmpq   40281d <submitr+0x2d7>
  402ac1:	48 b8 45 72 72 6f 72 	movabs $0x43203a726f727245,%rax
  402ac8:	3a 20 43 
  402acb:	48 ba 6c 69 65 6e 74 	movabs $0x6e7520746e65696c,%rdx
  402ad2:	20 75 6e 
  402ad5:	48 89 45 00          	mov    %rax,0x0(%rbp)
  402ad9:	48 89 55 08          	mov    %rdx,0x8(%rbp)
  402add:	48 b8 61 62 6c 65 20 	movabs $0x206f7420656c6261,%rax
  402ae4:	74 6f 20 
  402ae7:	48 ba 72 65 61 64 20 	movabs $0x7269662064616572,%rdx
  402aee:	66 69 72 
  402af1:	48 89 45 10          	mov    %rax,0x10(%rbp)
  402af5:	48 89 55 18          	mov    %rdx,0x18(%rbp)
  402af9:	48 b8 73 74 20 68 65 	movabs $0x6564616568207473,%rax
  402b00:	61 64 65 
  402b03:	48 ba 72 20 66 72 6f 	movabs $0x72206d6f72662072,%rdx
  402b0a:	6d 20 72 
  402b0d:	48 89 45 20          	mov    %rax,0x20(%rbp)
  402b11:	48 89 55 28          	mov    %rdx,0x28(%rbp)
  402b15:	48 b8 65 73 75 6c 74 	movabs $0x657320746c757365,%rax
  402b1c:	20 73 65 
  402b1f:	48 89 45 30          	mov    %rax,0x30(%rbp)
  402b23:	c7 45 38 72 76 65 72 	movl   $0x72657672,0x38(%rbp)
  402b2a:	c6 45 3c 00          	movb   $0x0,0x3c(%rbp)
  402b2e:	89 df                	mov    %ebx,%edi
  402b30:	e8 eb e1 ff ff       	callq  400d20 <close@plt>
  402b35:	b8 ff ff ff ff       	mov    $0xffffffff,%eax
  402b3a:	e9 de fc ff ff       	jmpq   40281d <submitr+0x2d7>
  402b3f:	ba 00 20 00 00       	mov    $0x2000,%edx
  402b44:	48 8d b4 24 40 20 00 	lea    0x2040(%rsp),%rsi
  402b4b:	00 
  402b4c:	48 8d 7c 24 30       	lea    0x30(%rsp),%rdi
  402b51:	e8 3b f8 ff ff       	callq  402391 <rio_readlineb>
  402b56:	48 85 c0             	test   %rax,%rax
  402b59:	0f 8e 90 00 00 00    	jle    402bef <submitr+0x6a9>
  402b5f:	44 8b 44 24 1c       	mov    0x1c(%rsp),%r8d
  402b64:	41 81 f8 c8 00 00 00 	cmp    $0xc8,%r8d
  402b6b:	0f 85 02 01 00 00    	jne    402c73 <submitr+0x72d>
  402b71:	48 8d b4 24 40 20 00 	lea    0x2040(%rsp),%rsi
  402b78:	00 
  402b79:	48 89 ef             	mov    %rbp,%rdi
  402b7c:	e8 2f e1 ff ff       	callq  400cb0 <strcpy@plt>
  402b81:	89 df                	mov    %ebx,%edi
  402b83:	e8 98 e1 ff ff       	callq  400d20 <close@plt>
  402b88:	bf 00 38 40 00       	mov    $0x403800,%edi
  402b8d:	b9 04 00 00 00       	mov    $0x4,%ecx
  402b92:	48 89 ee             	mov    %rbp,%rsi
  402b95:	f3 a6                	repz cmpsb %es:(%rdi),%ds:(%rsi)
  402b97:	0f 97 c0             	seta   %al
  402b9a:	1c 00                	sbb    $0x0,%al
  402b9c:	0f be c0             	movsbl %al,%eax
  402b9f:	85 c0                	test   %eax,%eax
  402ba1:	0f 84 76 fc ff ff    	je     40281d <submitr+0x2d7>
  402ba7:	bf 04 38 40 00       	mov    $0x403804,%edi
  402bac:	b9 05 00 00 00       	mov    $0x5,%ecx
  402bb1:	48 89 ee             	mov    %rbp,%rsi
  402bb4:	f3 a6                	repz cmpsb %es:(%rdi),%ds:(%rsi)
  402bb6:	0f 97 c0             	seta   %al
  402bb9:	1c 00                	sbb    $0x0,%al
  402bbb:	0f be c0             	movsbl %al,%eax
  402bbe:	85 c0                	test   %eax,%eax
  402bc0:	0f 84 57 fc ff ff    	je     40281d <submitr+0x2d7>
  402bc6:	bf 09 38 40 00       	mov    $0x403809,%edi
  402bcb:	b9 03 00 00 00       	mov    $0x3,%ecx
  402bd0:	48 89 ee             	mov    %rbp,%rsi
  402bd3:	f3 a6                	repz cmpsb %es:(%rdi),%ds:(%rsi)
  402bd5:	0f 97 c0             	seta   %al
  402bd8:	1c 00                	sbb    $0x0,%al
  402bda:	0f be c0             	movsbl %al,%eax
  402bdd:	85 c0                	test   %eax,%eax
  402bdf:	0f 84 38 fc ff ff    	je     40281d <submitr+0x2d7>
  402be5:	b8 ff ff ff ff       	mov    $0xffffffff,%eax
  402bea:	e9 2e fc ff ff       	jmpq   40281d <submitr+0x2d7>
  402bef:	48 b8 45 72 72 6f 72 	movabs $0x43203a726f727245,%rax
  402bf6:	3a 20 43 
  402bf9:	48 ba 6c 69 65 6e 74 	movabs $0x6e7520746e65696c,%rdx
  402c00:	20 75 6e 
  402c03:	48 89 45 00          	mov    %rax,0x0(%rbp)
  402c07:	48 89 55 08          	mov    %rdx,0x8(%rbp)
  402c0b:	48 b8 61 62 6c 65 20 	movabs $0x206f7420656c6261,%rax
  402c12:	74 6f 20 
  402c15:	48 ba 72 65 61 64 20 	movabs $0x6174732064616572,%rdx
  402c1c:	73 74 61 
  402c1f:	48 89 45 10          	mov    %rax,0x10(%rbp)
  402c23:	48 89 55 18          	mov    %rdx,0x18(%rbp)
  402c27:	48 b8 74 75 73 20 6d 	movabs $0x7373656d20737574,%rax
  402c2e:	65 73 73 
  402c31:	48 ba 61 67 65 20 66 	movabs $0x6d6f726620656761,%rdx
  402c38:	72 6f 6d 
  402c3b:	48 89 45 20          	mov    %rax,0x20(%rbp)
  402c3f:	48 89 55 28          	mov    %rdx,0x28(%rbp)
  402c43:	48 b8 20 72 65 73 75 	movabs $0x20746c7573657220,%rax
  402c4a:	6c 74 20 
  402c4d:	48 89 45 30          	mov    %rax,0x30(%rbp)
  402c51:	c7 45 38 73 65 72 76 	movl   $0x76726573,0x38(%rbp)
  402c58:	66 c7 45 3c 65 72    	movw   $0x7265,0x3c(%rbp)
  402c5e:	c6 45 3e 00          	movb   $0x0,0x3e(%rbp)
  402c62:	89 df                	mov    %ebx,%edi
  402c64:	e8 b7 e0 ff ff       	callq  400d20 <close@plt>
  402c69:	b8 ff ff ff ff       	mov    $0xffffffff,%eax
  402c6e:	e9 aa fb ff ff       	jmpq   40281d <submitr+0x2d7>
  402c73:	4c 8d 8c 24 40 80 00 	lea    0x8040(%rsp),%r9
  402c7a:	00 
  402c7b:	b9 b8 37 40 00       	mov    $0x4037b8,%ecx
  402c80:	48 c7 c2 ff ff ff ff 	mov    $0xffffffffffffffff,%rdx
  402c87:	be 01 00 00 00       	mov    $0x1,%esi
  402c8c:	48 89 ef             	mov    %rbp,%rdi
  402c8f:	b8 00 00 00 00       	mov    $0x0,%eax
  402c94:	e8 c7 e1 ff ff       	callq  400e60 <__sprintf_chk@plt>
  402c99:	89 df                	mov    %ebx,%edi
  402c9b:	e8 80 e0 ff ff       	callq  400d20 <close@plt>
  402ca0:	b8 ff ff ff ff       	mov    $0xffffffff,%eax
  402ca5:	e9 73 fb ff ff       	jmpq   40281d <submitr+0x2d7>
  402caa:	e8 31 e0 ff ff       	callq  400ce0 <__stack_chk_fail@plt>

0000000000402caf <init_timeout>:
  402caf:	85 ff                	test   %edi,%edi
  402cb1:	74 26                	je     402cd9 <init_timeout+0x2a>
  402cb3:	53                   	push   %rbx
  402cb4:	89 fb                	mov    %edi,%ebx
  402cb6:	85 ff                	test   %edi,%edi
  402cb8:	78 18                	js     402cd2 <init_timeout+0x23>
  402cba:	be 7a 22 40 00       	mov    $0x40227a,%esi
  402cbf:	bf 0e 00 00 00       	mov    $0xe,%edi
  402cc4:	e8 77 e0 ff ff       	callq  400d40 <signal@plt>
  402cc9:	89 df                	mov    %ebx,%edi
  402ccb:	e8 40 e0 ff ff       	callq  400d10 <alarm@plt>
  402cd0:	5b                   	pop    %rbx
  402cd1:	c3                   	retq   
  402cd2:	bb 00 00 00 00       	mov    $0x0,%ebx
  402cd7:	eb e1                	jmp    402cba <init_timeout+0xb>
  402cd9:	f3 c3                	repz retq 

0000000000402cdb <init_driver>:
  402cdb:	55                   	push   %rbp
  402cdc:	53                   	push   %rbx
  402cdd:	48 83 ec 28          	sub    $0x28,%rsp
  402ce1:	48 89 fd             	mov    %rdi,%rbp
  402ce4:	64 48 8b 04 25 28 00 	mov    %fs:0x28,%rax
  402ceb:	00 00 
  402ced:	48 89 44 24 18       	mov    %rax,0x18(%rsp)
  402cf2:	31 c0                	xor    %eax,%eax
  402cf4:	be 01 00 00 00       	mov    $0x1,%esi
  402cf9:	bf 0d 00 00 00       	mov    $0xd,%edi
  402cfe:	e8 3d e0 ff ff       	callq  400d40 <signal@plt>
  402d03:	be 01 00 00 00       	mov    $0x1,%esi
  402d08:	bf 1d 00 00 00       	mov    $0x1d,%edi
  402d0d:	e8 2e e0 ff ff       	callq  400d40 <signal@plt>
  402d12:	be 01 00 00 00       	mov    $0x1,%esi
  402d17:	bf 1d 00 00 00       	mov    $0x1d,%edi
  402d1c:	e8 1f e0 ff ff       	callq  400d40 <signal@plt>
  402d21:	ba 00 00 00 00       	mov    $0x0,%edx
  402d26:	be 01 00 00 00       	mov    $0x1,%esi
  402d2b:	bf 02 00 00 00       	mov    $0x2,%edi
  402d30:	e8 3b e1 ff ff       	callq  400e70 <socket@plt>
  402d35:	85 c0                	test   %eax,%eax
  402d37:	0f 88 9c 00 00 00    	js     402dd9 <init_driver+0xfe>
  402d3d:	89 c3                	mov    %eax,%ebx
  402d3f:	bf 4c 33 40 00       	mov    $0x40334c,%edi
  402d44:	e8 07 e0 ff ff       	callq  400d50 <gethostbyname@plt>
  402d49:	48 85 c0             	test   %rax,%rax
  402d4c:	0f 84 d3 00 00 00    	je     402e25 <init_driver+0x14a>
  402d52:	48 c7 44 24 02 00 00 	movq   $0x0,0x2(%rsp)
  402d59:	00 00 
  402d5b:	c7 44 24 0a 00 00 00 	movl   $0x0,0xa(%rsp)
  402d62:	00 
  402d63:	66 c7 44 24 0e 00 00 	movw   $0x0,0xe(%rsp)
  402d6a:	66 c7 04 24 02 00    	movw   $0x2,(%rsp)
  402d70:	48 63 50 14          	movslq 0x14(%rax),%rdx
  402d74:	48 8b 40 18          	mov    0x18(%rax),%rax
  402d78:	48 8b 30             	mov    (%rax),%rsi
  402d7b:	48 8d 7c 24 04       	lea    0x4(%rsp),%rdi
  402d80:	b9 0c 00 00 00       	mov    $0xc,%ecx
  402d85:	e8 d6 df ff ff       	callq  400d60 <__memmove_chk@plt>
  402d8a:	66 c7 44 24 02 3b 72 	movw   $0x723b,0x2(%rsp)
  402d91:	ba 10 00 00 00       	mov    $0x10,%edx
  402d96:	48 89 e6             	mov    %rsp,%rsi
  402d99:	89 df                	mov    %ebx,%edi
  402d9b:	e8 a0 e0 ff ff       	callq  400e40 <connect@plt>
  402da0:	85 c0                	test   %eax,%eax
  402da2:	0f 88 e5 00 00 00    	js     402e8d <init_driver+0x1b2>
  402da8:	89 df                	mov    %ebx,%edi
  402daa:	e8 71 df ff ff       	callq  400d20 <close@plt>
  402daf:	66 c7 45 00 4f 4b    	movw   $0x4b4f,0x0(%rbp)
  402db5:	c6 45 02 00          	movb   $0x0,0x2(%rbp)
  402db9:	b8 00 00 00 00       	mov    $0x0,%eax
  402dbe:	48 8b 4c 24 18       	mov    0x18(%rsp),%rcx
  402dc3:	64 48 33 0c 25 28 00 	xor    %fs:0x28,%rcx
  402dca:	00 00 
  402dcc:	0f 85 0e 01 00 00    	jne    402ee0 <init_driver+0x205>
  402dd2:	48 83 c4 28          	add    $0x28,%rsp
  402dd6:	5b                   	pop    %rbx
  402dd7:	5d                   	pop    %rbp
  402dd8:	c3                   	retq   
  402dd9:	48 b8 45 72 72 6f 72 	movabs $0x43203a726f727245,%rax
  402de0:	3a 20 43 
  402de3:	48 ba 6c 69 65 6e 74 	movabs $0x6e7520746e65696c,%rdx
  402dea:	20 75 6e 
  402ded:	48 89 45 00          	mov    %rax,0x0(%rbp)
  402df1:	48 89 55 08          	mov    %rdx,0x8(%rbp)
  402df5:	48 b8 61 62 6c 65 20 	movabs $0x206f7420656c6261,%rax
  402dfc:	74 6f 20 
  402dff:	48 ba 63 72 65 61 74 	movabs $0x7320657461657263,%rdx
  402e06:	65 20 73 
  402e09:	48 89 45 10          	mov    %rax,0x10(%rbp)
  402e0d:	48 89 55 18          	mov    %rdx,0x18(%rbp)
  402e11:	c7 45 20 6f 63 6b 65 	movl   $0x656b636f,0x20(%rbp)
  402e18:	66 c7 45 24 74 00    	movw   $0x74,0x24(%rbp)
  402e1e:	b8 ff ff ff ff       	mov    $0xffffffff,%eax
  402e23:	eb 99                	jmp    402dbe <init_driver+0xe3>
  402e25:	48 b8 45 72 72 6f 72 	movabs $0x44203a726f727245,%rax
  402e2c:	3a 20 44 
  402e2f:	48 ba 4e 53 20 69 73 	movabs $0x6e7520736920534e,%rdx
  402e36:	20 75 6e 
  402e39:	48 89 45 00          	mov    %rax,0x0(%rbp)
  402e3d:	48 89 55 08          	mov    %rdx,0x8(%rbp)
  402e41:	48 b8 61 62 6c 65 20 	movabs $0x206f7420656c6261,%rax
  402e48:	74 6f 20 
  402e4b:	48 ba 72 65 73 6f 6c 	movabs $0x2065766c6f736572,%rdx
  402e52:	76 65 20 
  402e55:	48 89 45 10          	mov    %rax,0x10(%rbp)
  402e59:	48 89 55 18          	mov    %rdx,0x18(%rbp)
  402e5d:	48 b8 73 65 72 76 65 	movabs $0x6120726576726573,%rax
  402e64:	72 20 61 
  402e67:	48 89 45 20          	mov    %rax,0x20(%rbp)
  402e6b:	c7 45 28 64 64 72 65 	movl   $0x65726464,0x28(%rbp)
  402e72:	66 c7 45 2c 73 73    	movw   $0x7373,0x2c(%rbp)
  402e78:	c6 45 2e 00          	movb   $0x0,0x2e(%rbp)
  402e7c:	89 df                	mov    %ebx,%edi
  402e7e:	e8 9d de ff ff       	callq  400d20 <close@plt>
  402e83:	b8 ff ff ff ff       	mov    $0xffffffff,%eax
  402e88:	e9 31 ff ff ff       	jmpq   402dbe <init_driver+0xe3>
  402e8d:	48 b8 45 72 72 6f 72 	movabs $0x55203a726f727245,%rax
  402e94:	3a 20 55 
  402e97:	48 ba 6e 61 62 6c 65 	movabs $0x6f7420656c62616e,%rdx
  402e9e:	20 74 6f 
  402ea1:	48 89 45 00          	mov    %rax,0x0(%rbp)
  402ea5:	48 89 55 08          	mov    %rdx,0x8(%rbp)
  402ea9:	48 b8 20 63 6f 6e 6e 	movabs $0x7463656e6e6f6320,%rax
  402eb0:	65 63 74 
  402eb3:	48 ba 20 74 6f 20 73 	movabs $0x76726573206f7420,%rdx
  402eba:	65 72 76 
  402ebd:	48 89 45 10          	mov    %rax,0x10(%rbp)
  402ec1:	48 89 55 18          	mov    %rdx,0x18(%rbp)
  402ec5:	66 c7 45 20 65 72    	movw   $0x7265,0x20(%rbp)
  402ecb:	c6 45 22 00          	movb   $0x0,0x22(%rbp)
  402ecf:	89 df                	mov    %ebx,%edi
  402ed1:	e8 4a de ff ff       	callq  400d20 <close@plt>
  402ed6:	b8 ff ff ff ff       	mov    $0xffffffff,%eax
  402edb:	e9 de fe ff ff       	jmpq   402dbe <init_driver+0xe3>
  402ee0:	e8 fb dd ff ff       	callq  400ce0 <__stack_chk_fail@plt>

0000000000402ee5 <driver_post>:
  402ee5:	53                   	push   %rbx
  402ee6:	4c 89 cb             	mov    %r9,%rbx
  402ee9:	45 85 c0             	test   %r8d,%r8d
  402eec:	75 18                	jne    402f06 <driver_post+0x21>
  402eee:	48 85 ff             	test   %rdi,%rdi
  402ef1:	74 05                	je     402ef8 <driver_post+0x13>
  402ef3:	80 3f 00             	cmpb   $0x0,(%rdi)
  402ef6:	75 35                	jne    402f2d <driver_post+0x48>
  402ef8:	66 c7 03 4f 4b       	movw   $0x4b4f,(%rbx)
  402efd:	c6 43 02 00          	movb   $0x0,0x2(%rbx)
  402f01:	44 89 c0             	mov    %r8d,%eax
  402f04:	5b                   	pop    %rbx
  402f05:	c3                   	retq   
  402f06:	48 89 ca             	mov    %rcx,%rdx
  402f09:	be 0c 38 40 00       	mov    $0x40380c,%esi
  402f0e:	bf 01 00 00 00       	mov    $0x1,%edi
  402f13:	b8 00 00 00 00       	mov    $0x0,%eax
  402f18:	e8 c3 de ff ff       	callq  400de0 <__printf_chk@plt>
  402f1d:	66 c7 03 4f 4b       	movw   $0x4b4f,(%rbx)
  402f22:	c6 43 02 00          	movb   $0x0,0x2(%rbx)
  402f26:	b8 00 00 00 00       	mov    $0x0,%eax
  402f2b:	eb d7                	jmp    402f04 <driver_post+0x1f>
  402f2d:	48 83 ec 08          	sub    $0x8,%rsp
  402f31:	41 51                	push   %r9
  402f33:	49 89 c9             	mov    %rcx,%r9
  402f36:	49 89 d0             	mov    %rdx,%r8
  402f39:	48 89 f9             	mov    %rdi,%rcx
  402f3c:	48 89 f2             	mov    %rsi,%rdx
  402f3f:	be 72 3b 00 00       	mov    $0x3b72,%esi
  402f44:	bf 4c 33 40 00       	mov    $0x40334c,%edi
  402f49:	e8 f8 f5 ff ff       	callq  402546 <submitr>
  402f4e:	48 83 c4 10          	add    $0x10,%rsp
  402f52:	eb b0                	jmp    402f04 <driver_post+0x1f>

0000000000402f54 <check>:
  402f54:	89 f8                	mov    %edi,%eax
  402f56:	c1 e8 1c             	shr    $0x1c,%eax
  402f59:	85 c0                	test   %eax,%eax
  402f5b:	74 1d                	je     402f7a <check+0x26>
  402f5d:	b9 00 00 00 00       	mov    $0x0,%ecx
  402f62:	83 f9 1f             	cmp    $0x1f,%ecx
  402f65:	7f 0d                	jg     402f74 <check+0x20>
  402f67:	89 f8                	mov    %edi,%eax
  402f69:	d3 e8                	shr    %cl,%eax
  402f6b:	3c 0a                	cmp    $0xa,%al
  402f6d:	74 11                	je     402f80 <check+0x2c>
  402f6f:	83 c1 08             	add    $0x8,%ecx
  402f72:	eb ee                	jmp    402f62 <check+0xe>
  402f74:	b8 01 00 00 00       	mov    $0x1,%eax
  402f79:	c3                   	retq   
  402f7a:	b8 00 00 00 00       	mov    $0x0,%eax
  402f7f:	c3                   	retq   
  402f80:	b8 00 00 00 00       	mov    $0x0,%eax
  402f85:	c3                   	retq   

0000000000402f86 <gencookie>:
  402f86:	53                   	push   %rbx
  402f87:	83 c7 01             	add    $0x1,%edi
  402f8a:	e8 01 dd ff ff       	callq  400c90 <srandom@plt>
  402f8f:	e8 0c de ff ff       	callq  400da0 <random@plt>
  402f94:	89 c3                	mov    %eax,%ebx
  402f96:	89 c7                	mov    %eax,%edi
  402f98:	e8 b7 ff ff ff       	callq  402f54 <check>
  402f9d:	85 c0                	test   %eax,%eax
  402f9f:	74 ee                	je     402f8f <gencookie+0x9>
  402fa1:	89 d8                	mov    %ebx,%eax
  402fa3:	5b                   	pop    %rbx
  402fa4:	c3                   	retq   
  402fa5:	66 2e 0f 1f 84 00 00 	nopw   %cs:0x0(%rax,%rax,1)
  402fac:	00 00 00 
  402faf:	90                   	nop

0000000000402fb0 <__libc_csu_init>:
  402fb0:	41 57                	push   %r15
  402fb2:	41 56                	push   %r14
  402fb4:	49 89 d7             	mov    %rdx,%r15
  402fb7:	41 55                	push   %r13
  402fb9:	41 54                	push   %r12
  402fbb:	4c 8d 25 4e 1e 20 00 	lea    0x201e4e(%rip),%r12        # 604e10 <__frame_dummy_init_array_entry>
  402fc2:	55                   	push   %rbp
  402fc3:	48 8d 2d 4e 1e 20 00 	lea    0x201e4e(%rip),%rbp        # 604e18 <__init_array_end>
  402fca:	53                   	push   %rbx
  402fcb:	41 89 fd             	mov    %edi,%r13d
  402fce:	49 89 f6             	mov    %rsi,%r14
  402fd1:	4c 29 e5             	sub    %r12,%rbp
  402fd4:	48 83 ec 08          	sub    $0x8,%rsp
  402fd8:	48 c1 fd 03          	sar    $0x3,%rbp
  402fdc:	e8 67 dc ff ff       	callq  400c48 <_init>
  402fe1:	48 85 ed             	test   %rbp,%rbp
  402fe4:	74 20                	je     403006 <__libc_csu_init+0x56>
  402fe6:	31 db                	xor    %ebx,%ebx
  402fe8:	0f 1f 84 00 00 00 00 	nopl   0x0(%rax,%rax,1)
  402fef:	00 
  402ff0:	4c 89 fa             	mov    %r15,%rdx
  402ff3:	4c 89 f6             	mov    %r14,%rsi
  402ff6:	44 89 ef             	mov    %r13d,%edi
  402ff9:	41 ff 14 dc          	callq  *(%r12,%rbx,8)
  402ffd:	48 83 c3 01          	add    $0x1,%rbx
  403001:	48 39 dd             	cmp    %rbx,%rbp
  403004:	75 ea                	jne    402ff0 <__libc_csu_init+0x40>
  403006:	48 83 c4 08          	add    $0x8,%rsp
  40300a:	5b                   	pop    %rbx
  40300b:	5d                   	pop    %rbp
  40300c:	41 5c                	pop    %r12
  40300e:	41 5d                	pop    %r13
  403010:	41 5e                	pop    %r14
  403012:	41 5f                	pop    %r15
  403014:	c3                   	retq   
  403015:	90                   	nop
  403016:	66 2e 0f 1f 84 00 00 	nopw   %cs:0x0(%rax,%rax,1)
  40301d:	00 00 00 

0000000000403020 <__libc_csu_fini>:
  403020:	f3 c3                	repz retq 

Disassembly of section .fini:

0000000000403024 <_fini>:
  403024:	48 83 ec 08          	sub    $0x8,%rsp
  403028:	48 83 c4 08          	add    $0x8,%rsp
  40302c:	c3                   	retq   
